
Habr_CO2.elf:     file format elf32-littleriscv
Habr_CO2.elf
architecture: riscv:rv32, flags 0x00000112:
EXEC_P, HAS_SYMS, D_PAGED
start address 0x00000000

Program Header:
    LOAD off    0x00001000 vaddr 0x00000000 paddr 0x00000000 align 2**12
         filesz 0x00002ff0 memsz 0x00002ff0 flags r-x
    LOAD off    0x00004000 vaddr 0x20000000 paddr 0x00002ff0 align 2**12
         filesz 0x00000048 memsz 0x00000464 flags rw-
    LOAD off    0x00004700 vaddr 0x20000700 paddr 0x20000700 align 2**12
         filesz 0x00000000 memsz 0x00000100 flags rw-

Sections:
Idx Name          Size      VMA       LMA       File off  Algn
  0 .init         000000a0  00000000  00000000  00001000  2**2
                  CONTENTS, ALLOC, LOAD, READONLY, CODE
  1 .text         00002f50  000000a0  000000a0  000010a0  2**2
                  CONTENTS, ALLOC, LOAD, READONLY, CODE
  2 .fini         00000000  00002ff0  00002ff0  00004048  2**0
                  CONTENTS, ALLOC, LOAD, CODE
  3 .dalign       00000000  20000000  20000000  00004048  2**0
                  CONTENTS
  4 .dlalign      00000000  00002ff0  00002ff0  00004048  2**0
                  CONTENTS
  5 .data         00000048  20000000  00002ff0  00004000  2**2
                  CONTENTS, ALLOC, LOAD, DATA
  6 .bss          0000041c  20000048  00003038  00004048  2**2
                  ALLOC
  7 .stack        00000100  20000700  20000700  00004700  2**0
                  ALLOC
  8 .debug_info   0000f2fc  00000000  00000000  00004048  2**0
                  CONTENTS, READONLY, DEBUGGING
  9 .debug_abbrev 00002bdc  00000000  00000000  00013344  2**0
                  CONTENTS, READONLY, DEBUGGING
 10 .debug_loc    00003793  00000000  00000000  00015f20  2**0
                  CONTENTS, READONLY, DEBUGGING
 11 .debug_aranges 00000698  00000000  00000000  000196b8  2**3
                  CONTENTS, READONLY, DEBUGGING
 12 .debug_ranges 00000630  00000000  00000000  00019d50  2**3
                  CONTENTS, READONLY, DEBUGGING
 13 .debug_line   0000935a  00000000  00000000  0001a380  2**0
                  CONTENTS, READONLY, DEBUGGING
 14 .debug_str    0000209e  00000000  00000000  000236da  2**0
                  CONTENTS, READONLY, DEBUGGING
 15 .comment      00000033  00000000  00000000  00025778  2**0
                  CONTENTS, READONLY
 16 .debug_frame  00000ee0  00000000  00000000  000257ac  2**2
                  CONTENTS, READONLY, DEBUGGING
SYMBOL TABLE:
00000000 l    d  .init	00000000 .init
000000a0 l    d  .text	00000000 .text
00002ff0 l    d  .fini	00000000 .fini
20000000 l    d  .dalign	00000000 .dalign
00002ff0 l    d  .dlalign	00000000 .dlalign
20000000 l    d  .data	00000000 .data
20000048 l    d  .bss	00000000 .bss
20000700 l    d  .stack	00000000 .stack
00000000 l    d  .debug_info	00000000 .debug_info
00000000 l    d  .debug_abbrev	00000000 .debug_abbrev
00000000 l    d  .debug_loc	00000000 .debug_loc
00000000 l    d  .debug_aranges	00000000 .debug_aranges
00000000 l    d  .debug_ranges	00000000 .debug_ranges
00000000 l    d  .debug_line	00000000 .debug_line
00000000 l    d  .debug_str	00000000 .debug_str
00000000 l    d  .comment	00000000 .comment
00000000 l    d  .debug_frame	00000000 .debug_frame
00000000 l    df *ABS*	00000000 ssd1306.c
20000048 l     O .bss	00000006 SSD1306
00000000 l    df *ABS*	00000000 scd4x.c
00000000 l    df *ABS*	00000000 ch32v00x_it.c
00000000 l    df *ABS*	00000000 main.c
00000000 l    df *ABS*	00000000 system_ch32v00x.c
00000000 l    df *ABS*	00000000 ch32v00x_dbgmcu.c
00000000 l    df *ABS*	00000000 ch32v00x_gpio.c
00000000 l    df *ABS*	00000000 ch32v00x_i2c.c
00000000 l    df *ABS*	00000000 ch32v00x_misc.c
00000000 l    df *ABS*	00000000 ch32v00x_rcc.c
20000024 l     O .data	00000014 ADCPrescTable
20000038 l     O .data	00000010 APBAHBPrescTable
00000000 l    df *ABS*	00000000 ch32v00x_usart.c
00000000 l    df *ABS*	00000000 i2c_hal.c
00000000 l    df *ABS*	00000000 systick_hal.c
20000458 l     O .bss	00000004 delay
2000045c l     O .bss	00000004 ticks
00000000 l    df *ABS*	00000000 debug.c
20000460 l     O .bss	00000002 p_ms
20000462 l     O .bss	00000001 p_us
00000000 l    df *ABS*	00000000 wchprintf.c
00000000 l    df *ABS*	00000000 strcpy.c
00000000 l    df *ABS*	00000000 fonts.c
000016a2  w    F .text	00000004 printDouble
00000396 g     F .text	0000000e SSD1306_GotoXY
00001a9a g     F .text	00000010 strcpy
000016a6  w    F .text	0000035e print
00001a04  w    F .text	00000024 printf
20000848 g       .data	00000000 __global_pointer$
000009f2  w      .text	00000000 TIM1_CC_IRQHandler
00000cb0 g     F .text	00000008 I2C_ReceiveData
0000062c g     F .text	00000002 HardFault_Handler
00001590  w    F .text	0000010e printInt
00000260 g     F .text	00000018 SSD1306_Fill
00001372 g     F .text	00000010 SysTick_Handler
0000135c g     F .text	00000010 delay_decrement
000009ca  w      .text	00000000 PVD_IRQHandler
00000628 g     F .text	00000004 NMI_Handler
00000a7a g     F .text	0000000a DBGMCU_GetCHIPID
00000ee4 g     F .text	0000008a HAL_I2C_Init
00000eda g     F .text	0000000a USART_GetFlagStatus
20000048 g       .bss	00000000 _sbss
00000100 g       *ABS*	00000000 __stack_size
000013b6 g     F .text	0000005c USART_Printf_Init
000000aa g     F .text	0000000a .hidden __riscv_restore_2
20000050 g     O .bss	00000401 output
000004a6 g     F .text	0000001e scd4x_transmit_data
0000169e  w    F .text	00000004 printLongLongInt
00001a50 g     F .text	0000004a puts
20000020 g     O .data	00000004 SystemCoreClock
0000057c g     F .text	000000ac scd4x_read_measurement
000000d4 g     F .text	0000002c .hidden __udivsi3
000000a0 g       .init	00000000 _einit
00000db4 g     F .text	0000001e RCC_APB2PeriphClockCmd
00000476 g     F .text	00000030 SSD1306_Puts
00000a84 g     F .text	000000d6 GPIO_Init
20000454 g     O .bss	00000004 NVIC_Priority_Group
000009ea  w      .text	00000000 SPI1_IRQHandler
00000ebc g     F .text	00000016 USART_Cmd
000000a0 g     F .text	0000000a .hidden __riscv_save_1
000000aa g     F .text	0000000a .hidden __riscv_restore_0
000009d2  w      .text	00000000 AWU_IRQHandler
000009d0  w      .text	00000000 EXTI7_0_IRQHandler
00000dd2 g     F .text	0000001e RCC_APB1PeriphClockCmd
20000700 g       .stack	00000000 _heap_end
00001aac g     O .text	00000d5c Font11x18
000009da  w      .text	00000000 DMA1_Channel4_IRQHandler
00000cac g     F .text	00000004 I2C_SendData
00000f6e g     F .text	0000010a HAL_I2C_Transmit
000009e2  w      .text	00000000 ADC1_IRQHandler
00000b64 g     F .text	000000e2 I2C_Init
20000464 g       .bss	00000000 _ebss
000009e0  w      .text	00000000 DMA1_Channel7_IRQHandler
00001382 g     F .text	00000034 Delay_Init
0000136c g     F .text	00000006 get_tick
000004fc g     F .text	0000000e scd4x_Init
0000134c g     F .text	00000010 delay_1ms
00000b5a g     F .text	0000000a GPIO_WriteBit
00000278 g     F .text	000000d0 SSD1306_Init
00000100 g     F .text	00000008 .hidden __umodsi3
00000c5e g     F .text	0000001a I2C_GenerateSTART
000009e4  w      .text	00000000 I2C1_EV_IRQHandler
0000062e g     F .text	00000032 GPIO_Toggle_INIT
00000d18 g     F .text	0000009c RCC_GetClocksFreq
000009de  w      .text	00000000 DMA1_Channel6_IRQHandler
00001078 g     F .text	0000013e HAL_I2C_Receive
00000df0 g     F .text	000000cc USART_Init
000009ce  w      .text	00000000 RCC_IRQHandler
000009f0  w      .text	00000000 TIM1_TRG_COM_IRQHandler
000009d4  w      .text	00000000 DMA1_Channel1_IRQHandler
0000050a g     F .text	0000002c scd4x_is_data_ready
00000000 g       .init	00000000 _start
20000010 g     O .data	00000010 AHBPrescTable
00000ce0 g     F .text	00000032 I2C_GetFlagStatus
000014aa  w    F .text	000000e6 prints
000000b4 g     F .text	00000014 .hidden __mulsi3
0000021a g     F .text	00000046 SSD1306_UpdateScreen
00000c46 g     F .text	00000018 I2C_Cmd
20000000 g       .dalign	00000000 _data_vma
00000cb8 g     F .text	00000012 I2C_Send7bitAddress
00002808 g     O .text	0000076c Font7x10
0000014a g     F .text	000000a8 memset
00000660 g     F .text	000001ca main
000001f2 g     F .text	00000028 SSD1306_writecommand
000004c4 g     F .text	0000001a scd4x_send_command
000009dc  w      .text	00000000 DMA1_Channel5_IRQHandler
000000cc g     F .text	00000058 .hidden __divsi3
0000082a g     F .text	0000012a SystemInit
00001462  w    F .text	00000048 printchar
00001a28 g     F .text	00000028 sprintf
00001340 g     F .text	0000000c Systick_Increment
00000000 g       .init	00000000 _sinit
00000348 g     F .text	0000004e SSD1306_DrawPixel
000009d8  w      .text	00000000 DMA1_Channel3_IRQHandler
000009ee  w      .text	00000000 TIM1_UP_IRQHandler
000009c8  w      .text	00000000 WWDG_IRQHandler
20000008 g     O .data	00000008 Font_7x10
000009f4  w      .text	00000000 TIM2_IRQHandler
20000800 g       .stack	00000000 _eusrstack
000000a0 g     F .text	0000000a .hidden __riscv_save_2
000009c6  w      .text	00000000 SW_Handler
000009ec  w      .text	00000000 TIM1_BRK_IRQHandler
00000ed2 g     F .text	00000008 USART_SendData
000003a4 g     F .text	000000d2 SSD1306_Putc
00001412 g     F .text	00000050 _write
20000048 g       .data	00000000 _edata
20000464 g       .bss	00000000 _end
00000536 g     F .text	00000046 sensirion_common_generate_crc
00002ff0 g       .dlalign	00000000 _data_lma
00000954 g     F .text	0000006c SystemCoreClockUpdate
00000124 g     F .text	00000024 .hidden __modsi3
20000000 g     O .data	00000008 Font_11x18
000009d6  w      .text	00000000 DMA1_Channel2_IRQHandler
000009f6  w      .text	00000000 handle_reset
000004de g     F .text	0000001e scd4x_receive_data
000009cc  w      .text	00000000 FLASH_IRQHandler
000000a0 g     F .text	0000000a .hidden __riscv_save_0
000009e8  w      .text	00000000 USART1_IRQHandler
00000c92 g     F .text	0000001a I2C_AcknowledgeConfig
00000cca g     F .text	00000016 I2C_CheckEvent
00000c78 g     F .text	0000001a I2C_GenerateSTOP
000011b6 g     F .text	00000154 HAL_I2C_Mem_Write
000009e6  w      .text	00000000 I2C1_ER_IRQHandler
00000d12 g     F .text	00000006 NVIC_PriorityGroupConfig
000000aa g     F .text	0000000a .hidden __riscv_restore_1
0000130a g     F .text	00000036 Systick_Init



Disassembly of section .init:

00000000 <_sinit>:
   0:	1f70006f          	j	9f6 <handle_reset>
   4:	0000                	unimp
   6:	0000                	unimp
   8:	0628                	addi	a0,sp,776
   a:	0000                	unimp
   c:	062c                	addi	a1,sp,776
	...
  2e:	0000                	unimp
  30:	1372                	slli	t1,t1,0x3c
  32:	0000                	unimp
  34:	0000                	unimp
  36:	0000                	unimp
  38:	09c6                	slli	s3,s3,0x11
  3a:	0000                	unimp
  3c:	0000                	unimp
  3e:	0000                	unimp
  40:	09c8                	addi	a0,sp,212
  42:	0000                	unimp
  44:	09ca                	slli	s3,s3,0x12
  46:	0000                	unimp
  48:	09cc                	addi	a1,sp,212
  4a:	0000                	unimp
  4c:	09ce                	slli	s3,s3,0x13
  4e:	0000                	unimp
  50:	09d0                	addi	a2,sp,212
  52:	0000                	unimp
  54:	09d2                	slli	s3,s3,0x14
  56:	0000                	unimp
  58:	09d4                	addi	a3,sp,212
  5a:	0000                	unimp
  5c:	09d6                	slli	s3,s3,0x15
  5e:	0000                	unimp
  60:	09d8                	addi	a4,sp,212
  62:	0000                	unimp
  64:	09da                	slli	s3,s3,0x16
  66:	0000                	unimp
  68:	09dc                	addi	a5,sp,212
  6a:	0000                	unimp
  6c:	09de                	slli	s3,s3,0x17
  6e:	0000                	unimp
  70:	09e0                	addi	s0,sp,220
  72:	0000                	unimp
  74:	09e2                	slli	s3,s3,0x18
  76:	0000                	unimp
  78:	09e4                	addi	s1,sp,220
  7a:	0000                	unimp
  7c:	09e6                	slli	s3,s3,0x19
  7e:	0000                	unimp
  80:	09e8                	addi	a0,sp,220
  82:	0000                	unimp
  84:	09ea                	slli	s3,s3,0x1a
  86:	0000                	unimp
  88:	09ec                	addi	a1,sp,220
  8a:	0000                	unimp
  8c:	09ee                	slli	s3,s3,0x1b
  8e:	0000                	unimp
  90:	09f0                	addi	a2,sp,220
  92:	0000                	unimp
  94:	09f2                	slli	s3,s3,0x1c
  96:	0000                	unimp
  98:	09f4                	addi	a3,sp,220
  9a:	0000                	unimp
  9c:	0000                	unimp
	...

Disassembly of section .text:

000000a0 <__riscv_save_0>:
      a0:	1151                	addi	sp,sp,-12
      a2:	c026                	sw	s1,0(sp)
      a4:	c222                	sw	s0,4(sp)
      a6:	c406                	sw	ra,8(sp)
      a8:	8282                	jr	t0

000000aa <__riscv_restore_0>:
      aa:	4482                	lw	s1,0(sp)
      ac:	4412                	lw	s0,4(sp)
      ae:	40a2                	lw	ra,8(sp)
      b0:	0131                	addi	sp,sp,12
      b2:	8082                	ret

000000b4 <__mulsi3>:
      b4:	862a                	mv	a2,a0
      b6:	4501                	li	a0,0
      b8:	0015f693          	andi	a3,a1,1
      bc:	c291                	beqz	a3,c0 <__mulsi3+0xc>
      be:	9532                	add	a0,a0,a2
      c0:	8185                	srli	a1,a1,0x1
      c2:	0606                	slli	a2,a2,0x1
      c4:	f9f5                	bnez	a1,b8 <__mulsi3+0x4>
      c6:	8082                	ret
      c8:	0000                	unimp
	...

000000cc <__divsi3>:
      cc:	02054e63          	bltz	a0,108 <__umodsi3+0x8>
      d0:	0405c363          	bltz	a1,116 <__umodsi3+0x16>

000000d4 <__udivsi3>:
      d4:	862e                	mv	a2,a1
      d6:	85aa                	mv	a1,a0
      d8:	557d                	li	a0,-1
      da:	c215                	beqz	a2,fe <__udivsi3+0x2a>
      dc:	4685                	li	a3,1
      de:	00b67863          	bgeu	a2,a1,ee <__udivsi3+0x1a>
      e2:	00c05663          	blez	a2,ee <__udivsi3+0x1a>
      e6:	0606                	slli	a2,a2,0x1
      e8:	0686                	slli	a3,a3,0x1
      ea:	feb66ce3          	bltu	a2,a1,e2 <__udivsi3+0xe>
      ee:	4501                	li	a0,0
      f0:	00c5e463          	bltu	a1,a2,f8 <__udivsi3+0x24>
      f4:	8d91                	sub	a1,a1,a2
      f6:	8d55                	or	a0,a0,a3
      f8:	8285                	srli	a3,a3,0x1
      fa:	8205                	srli	a2,a2,0x1
      fc:	faf5                	bnez	a3,f0 <__udivsi3+0x1c>
      fe:	8082                	ret

00000100 <__umodsi3>:
     100:	8286                	mv	t0,ra
     102:	3fc9                	jal	d4 <__udivsi3>
     104:	852e                	mv	a0,a1
     106:	8282                	jr	t0
     108:	40a00533          	neg	a0,a0
     10c:	0005d763          	bgez	a1,11a <__umodsi3+0x1a>
     110:	40b005b3          	neg	a1,a1
     114:	b7c1                	j	d4 <__udivsi3>
     116:	40b005b3          	neg	a1,a1
     11a:	8286                	mv	t0,ra
     11c:	3f65                	jal	d4 <__udivsi3>
     11e:	40a00533          	neg	a0,a0
     122:	8282                	jr	t0

00000124 <__modsi3>:
     124:	8286                	mv	t0,ra
     126:	0005c763          	bltz	a1,134 <__modsi3+0x10>
     12a:	00054963          	bltz	a0,13c <__modsi3+0x18>
     12e:	375d                	jal	d4 <__udivsi3>
     130:	852e                	mv	a0,a1
     132:	8282                	jr	t0
     134:	40b005b3          	neg	a1,a1
     138:	fe055be3          	bgez	a0,12e <__modsi3+0xa>
     13c:	40a00533          	neg	a0,a0
     140:	3f51                	jal	d4 <__udivsi3>
     142:	40b00533          	neg	a0,a1
     146:	8282                	jr	t0
	...

0000014a <memset>:
     14a:	433d                	li	t1,15
     14c:	872a                	mv	a4,a0
     14e:	02c37363          	bgeu	t1,a2,174 <memset+0x2a>
     152:	00f77793          	andi	a5,a4,15
     156:	efbd                	bnez	a5,1d4 <memset+0x8a>
     158:	e5ad                	bnez	a1,1c2 <memset+0x78>
     15a:	ff067693          	andi	a3,a2,-16
     15e:	8a3d                	andi	a2,a2,15
     160:	96ba                	add	a3,a3,a4
     162:	c30c                	sw	a1,0(a4)
     164:	c34c                	sw	a1,4(a4)
     166:	c70c                	sw	a1,8(a4)
     168:	c74c                	sw	a1,12(a4)
     16a:	0741                	addi	a4,a4,16
     16c:	fed76be3          	bltu	a4,a3,162 <memset+0x18>
     170:	e211                	bnez	a2,174 <memset+0x2a>
     172:	8082                	ret
     174:	40c306b3          	sub	a3,t1,a2
     178:	068a                	slli	a3,a3,0x2
     17a:	00000297          	auipc	t0,0x0
     17e:	9696                	add	a3,a3,t0
     180:	00a68067          	jr	10(a3)
     184:	00b70723          	sb	a1,14(a4)
     188:	00b706a3          	sb	a1,13(a4)
     18c:	00b70623          	sb	a1,12(a4)
     190:	00b705a3          	sb	a1,11(a4)
     194:	00b70523          	sb	a1,10(a4)
     198:	00b704a3          	sb	a1,9(a4)
     19c:	00b70423          	sb	a1,8(a4)
     1a0:	00b703a3          	sb	a1,7(a4)
     1a4:	00b70323          	sb	a1,6(a4)
     1a8:	00b702a3          	sb	a1,5(a4)
     1ac:	00b70223          	sb	a1,4(a4)
     1b0:	00b701a3          	sb	a1,3(a4)
     1b4:	00b70123          	sb	a1,2(a4)
     1b8:	00b700a3          	sb	a1,1(a4)
     1bc:	00b70023          	sb	a1,0(a4)
     1c0:	8082                	ret
     1c2:	0ff5f593          	andi	a1,a1,255
     1c6:	00859693          	slli	a3,a1,0x8
     1ca:	8dd5                	or	a1,a1,a3
     1cc:	01059693          	slli	a3,a1,0x10
     1d0:	8dd5                	or	a1,a1,a3
     1d2:	b761                	j	15a <memset+0x10>
     1d4:	00279693          	slli	a3,a5,0x2
     1d8:	00000297          	auipc	t0,0x0
     1dc:	9696                	add	a3,a3,t0
     1de:	8286                	mv	t0,ra
     1e0:	fa8680e7          	jalr	-88(a3)
     1e4:	8096                	mv	ra,t0
     1e6:	17c1                	addi	a5,a5,-16
     1e8:	8f1d                	sub	a4,a4,a5
     1ea:	963e                	add	a2,a2,a5
     1ec:	f8c374e3          	bgeu	t1,a2,174 <memset+0x2a>
     1f0:	b7a5                	j	158 <memset+0xe>

000001f2 <SSD1306_writecommand>:
     1f2:	eafff2ef          	jal	t0,a0 <__riscv_save_0>
     1f6:	1171                	addi	sp,sp,-4
     1f8:	81c8                	sb	a0,3(sp)
     1fa:	40005537          	lui	a0,0x40005
     1fe:	00310693          	addi	a3,sp,3
     202:	0c800793          	li	a5,200
     206:	4705                	li	a4,1
     208:	4601                	li	a2,0
     20a:	07800593          	li	a1,120
     20e:	40050513          	addi	a0,a0,1024 # 40005400 <__global_pointer$+0x20004bb8>
     212:	7a5000ef          	jal	ra,11b6 <HAL_I2C_Mem_Write>
     216:	0111                	addi	sp,sp,4
     218:	bd49                	j	aa <__riscv_restore_0>

0000021a <SSD1306_UpdateScreen>:
     21a:	e87ff2ef          	jal	t0,a0 <__riscv_save_0>
     21e:	04000793          	li	a5,64
     222:	0b000513          	li	a0,176
     226:	80f18423          	sb	a5,-2040(gp) # 20000050 <output>
     22a:	37e1                	jal	1f2 <SSD1306_writecommand>
     22c:	4541                	li	a0,16
     22e:	37d1                	jal	1f2 <SSD1306_writecommand>
     230:	4501                	li	a0,0
     232:	37c1                	jal	1f2 <SSD1306_writecommand>
     234:	02200513          	li	a0,34
     238:	3f6d                	jal	1f2 <SSD1306_writecommand>
     23a:	4501                	li	a0,0
     23c:	3f5d                	jal	1f2 <SSD1306_writecommand>
     23e:	451d                	li	a0,7
     240:	3f4d                	jal	1f2 <SSD1306_writecommand>
     242:	40005537          	lui	a0,0x40005
     246:	0c800713          	li	a4,200
     24a:	40100693          	li	a3,1025
     24e:	80818613          	addi	a2,gp,-2040 # 20000050 <output>
     252:	07800593          	li	a1,120
     256:	40050513          	addi	a0,a0,1024 # 40005400 <__global_pointer$+0x20004bb8>
     25a:	515000ef          	jal	ra,f6e <HAL_I2C_Transmit>
     25e:	b5b1                	j	aa <__riscv_restore_0>

00000260 <SSD1306_Fill>:
     260:	e41ff2ef          	jal	t0,a0 <__riscv_save_0>
     264:	0ff00593          	li	a1,255
     268:	e111                	bnez	a0,26c <SSD1306_Fill+0xc>
     26a:	4581                	li	a1,0
     26c:	40000613          	li	a2,1024
     270:	80918513          	addi	a0,gp,-2039 # 20000051 <output+0x1>
     274:	3dd9                	jal	14a <memset>
     276:	bd15                	j	aa <__riscv_restore_0>

00000278 <SSD1306_Init>:
     278:	e29ff2ef          	jal	t0,a0 <__riscv_save_0>
     27c:	06400513          	li	a0,100
     280:	0cc010ef          	jal	ra,134c <delay_1ms>
     284:	0ae00513          	li	a0,174
     288:	37ad                	jal	1f2 <SSD1306_writecommand>
     28a:	0d500513          	li	a0,213
     28e:	3795                	jal	1f2 <SSD1306_writecommand>
     290:	4501                	li	a0,0
     292:	3785                	jal	1f2 <SSD1306_writecommand>
     294:	0a800513          	li	a0,168
     298:	3fa9                	jal	1f2 <SSD1306_writecommand>
     29a:	03f00513          	li	a0,63
     29e:	3f91                	jal	1f2 <SSD1306_writecommand>
     2a0:	0d300513          	li	a0,211
     2a4:	37b9                	jal	1f2 <SSD1306_writecommand>
     2a6:	4501                	li	a0,0
     2a8:	37a9                	jal	1f2 <SSD1306_writecommand>
     2aa:	04000513          	li	a0,64
     2ae:	3791                	jal	1f2 <SSD1306_writecommand>
     2b0:	08d00513          	li	a0,141
     2b4:	3f3d                	jal	1f2 <SSD1306_writecommand>
     2b6:	4551                	li	a0,20
     2b8:	3f2d                	jal	1f2 <SSD1306_writecommand>
     2ba:	02000513          	li	a0,32
     2be:	3f15                	jal	1f2 <SSD1306_writecommand>
     2c0:	4501                	li	a0,0
     2c2:	3f05                	jal	1f2 <SSD1306_writecommand>
     2c4:	0a100513          	li	a0,161
     2c8:	372d                	jal	1f2 <SSD1306_writecommand>
     2ca:	0c800513          	li	a0,200
     2ce:	3715                	jal	1f2 <SSD1306_writecommand>
     2d0:	0da00513          	li	a0,218
     2d4:	3f39                	jal	1f2 <SSD1306_writecommand>
     2d6:	4549                	li	a0,18
     2d8:	3f29                	jal	1f2 <SSD1306_writecommand>
     2da:	02e00513          	li	a0,46
     2de:	3f11                	jal	1f2 <SSD1306_writecommand>
     2e0:	02100513          	li	a0,33
     2e4:	3739                	jal	1f2 <SSD1306_writecommand>
     2e6:	4501                	li	a0,0
     2e8:	3729                	jal	1f2 <SSD1306_writecommand>
     2ea:	07f00513          	li	a0,127
     2ee:	3711                	jal	1f2 <SSD1306_writecommand>
     2f0:	02200513          	li	a0,34
     2f4:	3dfd                	jal	1f2 <SSD1306_writecommand>
     2f6:	4501                	li	a0,0
     2f8:	3ded                	jal	1f2 <SSD1306_writecommand>
     2fa:	451d                	li	a0,7
     2fc:	3ddd                	jal	1f2 <SSD1306_writecommand>
     2fe:	08100513          	li	a0,129
     302:	3dc5                	jal	1f2 <SSD1306_writecommand>
     304:	0cf00513          	li	a0,207
     308:	35ed                	jal	1f2 <SSD1306_writecommand>
     30a:	0d900513          	li	a0,217
     30e:	35d5                	jal	1f2 <SSD1306_writecommand>
     310:	0f100513          	li	a0,241
     314:	3df9                	jal	1f2 <SSD1306_writecommand>
     316:	0db00513          	li	a0,219
     31a:	3de1                	jal	1f2 <SSD1306_writecommand>
     31c:	04000513          	li	a0,64
     320:	3dc9                	jal	1f2 <SSD1306_writecommand>
     322:	0a400513          	li	a0,164
     326:	35f1                	jal	1f2 <SSD1306_writecommand>
     328:	0af00513          	li	a0,175
     32c:	35d9                	jal	1f2 <SSD1306_writecommand>
     32e:	4501                	li	a0,0
     330:	3f05                	jal	260 <SSD1306_Fill>
     332:	35e5                	jal	21a <SSD1306_UpdateScreen>
     334:	200007b7          	lui	a5,0x20000
     338:	04878793          	addi	a5,a5,72 # 20000048 <_edata>
     33c:	4705                	li	a4,1
     33e:	0007a023          	sw	zero,0(a5)
     342:	b3d8                	sb	a4,5(a5)
     344:	4505                	li	a0,1
     346:	b395                	j	aa <__riscv_restore_0>

00000348 <SSD1306_DrawPixel>:
     348:	07f00793          	li	a5,127
     34c:	04a7e063          	bltu	a5,a0,38c <SSD1306_DrawPixel+0x44>
     350:	03f00793          	li	a5,63
     354:	02b7ec63          	bltu	a5,a1,38c <SSD1306_DrawPixel+0x44>
     358:	200007b7          	lui	a5,0x20000
     35c:	04c7c783          	lbu	a5,76(a5) # 2000004c <_edata+0x4>
     360:	c399                	beqz	a5,366 <SSD1306_DrawPixel+0x1e>
     362:	00163613          	seqz	a2,a2
     366:	0035d793          	srli	a5,a1,0x3
     36a:	079e                	slli	a5,a5,0x7
     36c:	97aa                	add	a5,a5,a0
     36e:	899d                	andi	a1,a1,7
     370:	4705                	li	a4,1
     372:	80818513          	addi	a0,gp,-2040 # 20000050 <output>
     376:	00b715b3          	sll	a1,a4,a1
     37a:	953e                	add	a0,a0,a5
     37c:	05e2                	slli	a1,a1,0x18
     37e:	00150783          	lb	a5,1(a0)
     382:	85e1                	srai	a1,a1,0x18
     384:	00e61563          	bne	a2,a4,38e <SSD1306_DrawPixel+0x46>
     388:	8ddd                	or	a1,a1,a5
     38a:	b10c                	sb	a1,1(a0)
     38c:	8082                	ret
     38e:	fff5c593          	not	a1,a1
     392:	8dfd                	and	a1,a1,a5
     394:	bfdd                	j	38a <SSD1306_DrawPixel+0x42>

00000396 <SSD1306_GotoXY>:
     396:	200007b7          	lui	a5,0x20000
     39a:	04878793          	addi	a5,a5,72 # 20000048 <_edata>
     39e:	a38a                	sh	a0,0(a5)
     3a0:	a3ae                	sh	a1,2(a5)
     3a2:	8082                	ret

000003a4 <SSD1306_Putc>:
     3a4:	cfdff2ef          	jal	t0,a0 <__riscv_save_0>
     3a8:	1101                	addi	sp,sp,-32
     3aa:	200007b7          	lui	a5,0x20000
     3ae:	2198                	lbu	a4,0(a1)
     3b0:	c032                	sw	a2,0(sp)
     3b2:	0487d603          	lhu	a2,72(a5) # 20000048 <_edata>
     3b6:	83ae                	mv	t2,a1
     3b8:	07f00593          	li	a1,127
     3bc:	963a                	add	a2,a2,a4
     3be:	0ac5ca63          	blt	a1,a2,472 <SSD1306_Putc+0xce>
     3c2:	04878413          	addi	s0,a5,72
     3c6:	0013c583          	lbu	a1,1(t2)
     3ca:	2032                	lhu	a2,2(s0)
     3cc:	962e                	add	a2,a2,a1
     3ce:	03f00593          	li	a1,63
     3d2:	0ac5c063          	blt	a1,a2,472 <SSD1306_Putc+0xce>
     3d6:	02e00613          	li	a2,46
     3da:	84aa                	mv	s1,a0
     3dc:	00c51363          	bne	a0,a2,3e2 <SSD1306_Putc+0x3e>
     3e0:	8305                	srli	a4,a4,0x1
     3e2:	fe048793          	addi	a5,s1,-32
     3e6:	4301                	li	t1,0
     3e8:	c63e                	sw	a5,12(sp)
     3ea:	0013c583          	lbu	a1,1(t2)
     3ee:	00b36863          	bltu	t1,a1,3fe <SSD1306_Putc+0x5a>
     3f2:	2012                	lhu	a2,0(s0)
     3f4:	9732                	add	a4,a4,a2
     3f6:	a01a                	sh	a4,0(s0)
     3f8:	8526                	mv	a0,s1
     3fa:	6105                	addi	sp,sp,32
     3fc:	b17d                	j	aa <__riscv_restore_0>
     3fe:	4532                	lw	a0,12(sp)
     400:	c41e                	sw	t2,8(sp)
     402:	c21a                	sw	t1,4(sp)
     404:	c83a                	sw	a4,16(sp)
     406:	317d                	jal	b4 <__mulsi3>
     408:	43a2                	lw	t2,8(sp)
     40a:	4312                	lw	t1,4(sp)
     40c:	4742                	lw	a4,16(sp)
     40e:	0043a603          	lw	a2,4(t2)
     412:	951a                	add	a0,a0,t1
     414:	0506                	slli	a0,a0,0x1
     416:	962a                	add	a2,a2,a0
     418:	221e                	lhu	a5,0(a2)
     41a:	4281                	li	t0,0
     41c:	c23e                	sw	a5,4(sp)
     41e:	4782                	lw	a5,0(sp)
     420:	0017b793          	seqz	a5,a5
     424:	c43e                	sw	a5,8(sp)
     426:	200a                	lhu	a0,0(s0)
     428:	00e2e463          	bltu	t0,a4,430 <SSD1306_Putc+0x8c>
     42c:	0305                	addi	t1,t1,1
     42e:	bf75                	j	3ea <SSD1306_Putc+0x46>
     430:	4792                	lw	a5,4(sp)
     432:	202e                	lhu	a1,2(s0)
     434:	9516                	add	a0,a0,t0
     436:	00579633          	sll	a2,a5,t0
     43a:	959a                	add	a1,a1,t1
     43c:	0542                	slli	a0,a0,0x10
     43e:	05c2                	slli	a1,a1,0x10
     440:	01061793          	slli	a5,a2,0x10
     444:	ce1e                	sw	t2,28(sp)
     446:	cc16                	sw	t0,24(sp)
     448:	ca1a                	sw	t1,20(sp)
     44a:	c83a                	sw	a4,16(sp)
     44c:	8141                	srli	a0,a0,0x10
     44e:	81c1                	srli	a1,a1,0x10
     450:	0007da63          	bgez	a5,464 <SSD1306_Putc+0xc0>
     454:	4602                	lw	a2,0(sp)
     456:	3dcd                	jal	348 <SSD1306_DrawPixel>
     458:	4742                	lw	a4,16(sp)
     45a:	4352                	lw	t1,20(sp)
     45c:	42e2                	lw	t0,24(sp)
     45e:	43f2                	lw	t2,28(sp)
     460:	0285                	addi	t0,t0,1
     462:	b7d1                	j	426 <SSD1306_Putc+0x82>
     464:	4622                	lw	a2,8(sp)
     466:	35cd                	jal	348 <SSD1306_DrawPixel>
     468:	43f2                	lw	t2,28(sp)
     46a:	42e2                	lw	t0,24(sp)
     46c:	4352                	lw	t1,20(sp)
     46e:	4742                	lw	a4,16(sp)
     470:	bfc5                	j	460 <SSD1306_Putc+0xbc>
     472:	4481                	li	s1,0
     474:	b751                	j	3f8 <SSD1306_Putc+0x54>

00000476 <SSD1306_Puts>:
     476:	c2bff2ef          	jal	t0,a0 <__riscv_save_0>
     47a:	1171                	addi	sp,sp,-4
     47c:	842a                	mv	s0,a0
     47e:	84ae                	mv	s1,a1
     480:	8732                	mv	a4,a2
     482:	00040783          	lb	a5,0(s0)
     486:	e781                	bnez	a5,48e <SSD1306_Puts+0x18>
     488:	853e                	mv	a0,a5
     48a:	0111                	addi	sp,sp,4
     48c:	b939                	j	aa <__riscv_restore_0>
     48e:	853e                	mv	a0,a5
     490:	863a                	mv	a2,a4
     492:	85a6                	mv	a1,s1
     494:	c03a                	sw	a4,0(sp)
     496:	3739                	jal	3a4 <SSD1306_Putc>
     498:	00040783          	lb	a5,0(s0)
     49c:	fef516e3          	bne	a0,a5,488 <SSD1306_Puts+0x12>
     4a0:	0405                	addi	s0,s0,1
     4a2:	4702                	lw	a4,0(sp)
     4a4:	bff9                	j	482 <SSD1306_Puts+0xc>

000004a6 <scd4x_transmit_data>:
     4a6:	bfbff2ef          	jal	t0,a0 <__riscv_save_0>
     4aa:	862a                	mv	a2,a0
     4ac:	40005537          	lui	a0,0x40005
     4b0:	86ae                	mv	a3,a1
     4b2:	03200713          	li	a4,50
     4b6:	0c400593          	li	a1,196
     4ba:	40050513          	addi	a0,a0,1024 # 40005400 <__global_pointer$+0x20004bb8>
     4be:	2b1000ef          	jal	ra,f6e <HAL_I2C_Transmit>
     4c2:	b6e5                	j	aa <__riscv_restore_0>

000004c4 <scd4x_send_command>:
     4c4:	bddff2ef          	jal	t0,a0 <__riscv_save_0>
     4c8:	00851793          	slli	a5,a0,0x8
     4cc:	8121                	srli	a0,a0,0x8
     4ce:	1171                	addi	sp,sp,-4
     4d0:	8d5d                	or	a0,a0,a5
     4d2:	8068                	sh	a0,0(sp)
     4d4:	4589                	li	a1,2
     4d6:	850a                	mv	a0,sp
     4d8:	37f9                	jal	4a6 <scd4x_transmit_data>
     4da:	0111                	addi	sp,sp,4
     4dc:	b6f9                	j	aa <__riscv_restore_0>

000004de <scd4x_receive_data>:
     4de:	bc3ff2ef          	jal	t0,a0 <__riscv_save_0>
     4e2:	862a                	mv	a2,a0
     4e4:	40005537          	lui	a0,0x40005
     4e8:	86ae                	mv	a3,a1
     4ea:	03200713          	li	a4,50
     4ee:	0c400593          	li	a1,196
     4f2:	40050513          	addi	a0,a0,1024 # 40005400 <__global_pointer$+0x20004bb8>
     4f6:	383000ef          	jal	ra,1078 <HAL_I2C_Receive>
     4fa:	be45                	j	aa <__riscv_restore_0>

000004fc <scd4x_Init>:
     4fc:	ba5ff2ef          	jal	t0,a0 <__riscv_save_0>
     500:	6509                	lui	a0,0x2
     502:	1b150513          	addi	a0,a0,433 # 21b1 <Font11x18+0x705>
     506:	3f7d                	jal	4c4 <scd4x_send_command>
     508:	b64d                	j	aa <__riscv_restore_0>

0000050a <scd4x_is_data_ready>:
     50a:	b97ff2ef          	jal	t0,a0 <__riscv_save_0>
     50e:	6539                	lui	a0,0xe
     510:	1171                	addi	sp,sp,-4
     512:	4b850513          	addi	a0,a0,1208 # e4b8 <_data_lma+0xb4c8>
     516:	377d                	jal	4c4 <scd4x_send_command>
     518:	458d                	li	a1,3
     51a:	850a                	mv	a0,sp
     51c:	37c9                	jal	4de <scd4x_receive_data>
     51e:	e911                	bnez	a0,532 <scd4x_is_data_ready+0x28>
     520:	801c                	lbu	a5,0(sp)
     522:	8098                	lbu	a4,1(sp)
     524:	07a2                	slli	a5,a5,0x8
     526:	97ba                	add	a5,a5,a4
     528:	01579713          	slli	a4,a5,0x15
     52c:	e319                	bnez	a4,532 <scd4x_is_data_ready+0x28>
     52e:	0f000513          	li	a0,240
     532:	0111                	addi	sp,sp,4
     534:	be9d                	j	aa <__riscv_restore_0>

00000536 <sensirion_common_generate_crc>:
     536:	4681                	li	a3,0
     538:	0ff00793          	li	a5,255
     53c:	01069713          	slli	a4,a3,0x10
     540:	8341                	srli	a4,a4,0x10
     542:	00b76463          	bltu	a4,a1,54a <sensirion_common_generate_crc+0x14>
     546:	853e                	mv	a0,a5
     548:	8082                	ret
     54a:	00d50733          	add	a4,a0,a3
     54e:	2318                	lbu	a4,0(a4)
     550:	8fb9                	xor	a5,a5,a4
     552:	4721                	li	a4,8
     554:	01879313          	slli	t1,a5,0x18
     558:	00179613          	slli	a2,a5,0x1
     55c:	41835313          	srai	t1,t1,0x18
     560:	0ff67793          	andi	a5,a2,255
     564:	00035663          	bgez	t1,570 <sensirion_common_generate_crc+0x3a>
     568:	03164793          	xori	a5,a2,49
     56c:	0ff7f793          	andi	a5,a5,255
     570:	177d                	addi	a4,a4,-1
     572:	0ff77713          	andi	a4,a4,255
     576:	ff79                	bnez	a4,554 <sensirion_common_generate_crc+0x1e>
     578:	0685                	addi	a3,a3,1
     57a:	b7c9                	j	53c <sensirion_common_generate_crc+0x6>

0000057c <scd4x_read_measurement>:
     57c:	b25ff2ef          	jal	t0,a0 <__riscv_save_0>
     580:	84aa                	mv	s1,a0
     582:	653d                	lui	a0,0xf
     584:	1121                	addi	sp,sp,-24
     586:	c0550513          	addi	a0,a0,-1019 # ec05 <_data_lma+0xbc15>
     58a:	c02e                	sw	a1,0(sp)
     58c:	c232                	sw	a2,4(sp)
     58e:	3f1d                	jal	4c4 <scd4x_send_command>
     590:	45a5                	li	a1,9
     592:	0068                	addi	a0,sp,12
     594:	37a9                	jal	4de <scd4x_receive_data>
     596:	842a                	mv	s0,a0
     598:	e151                	bnez	a0,61c <scd4x_read_measurement+0xa0>
     59a:	871c                	lbu	a5,14(sp)
     59c:	4589                	li	a1,2
     59e:	0068                	addi	a0,sp,12
     5a0:	c43e                	sw	a5,8(sp)
     5a2:	3f51                	jal	536 <sensirion_common_generate_crc>
     5a4:	47a2                	lw	a5,8(sp)
     5a6:	06a79e63          	bne	a5,a0,622 <scd4x_read_measurement+0xa6>
     5aa:	01114783          	lbu	a5,17(sp)
     5ae:	4589                	li	a1,2
     5b0:	00f10513          	addi	a0,sp,15
     5b4:	c43e                	sw	a5,8(sp)
     5b6:	3741                	jal	536 <sensirion_common_generate_crc>
     5b8:	47a2                	lw	a5,8(sp)
     5ba:	06a79463          	bne	a5,a0,622 <scd4x_read_measurement+0xa6>
     5be:	01414783          	lbu	a5,20(sp)
     5c2:	4589                	li	a1,2
     5c4:	01210513          	addi	a0,sp,18
     5c8:	c43e                	sw	a5,8(sp)
     5ca:	37b5                	jal	536 <sensirion_common_generate_crc>
     5cc:	47a2                	lw	a5,8(sp)
     5ce:	04a79a63          	bne	a5,a0,622 <scd4x_read_measurement+0xa6>
     5d2:	861c                	lbu	a5,12(sp)
     5d4:	8698                	lbu	a4,13(sp)
     5d6:	01014503          	lbu	a0,16(sp)
     5da:	07a2                	slli	a5,a5,0x8
     5dc:	97ba                	add	a5,a5,a4
     5de:	a09e                	sh	a5,0(s1)
     5e0:	8784                	lbu	s1,15(sp)
     5e2:	67c1                	lui	a5,0x10
     5e4:	fff78593          	addi	a1,a5,-1 # ffff <_data_lma+0xd00f>
     5e8:	04a2                	slli	s1,s1,0x8
     5ea:	94aa                	add	s1,s1,a0
     5ec:	00149513          	slli	a0,s1,0x1
     5f0:	9526                	add	a0,a0,s1
     5f2:	050a                	slli	a0,a0,0x2
     5f4:	8d05                	sub	a0,a0,s1
     5f6:	0512                	slli	a0,a0,0x4
     5f8:	8d05                	sub	a0,a0,s1
     5fa:	3cc9                	jal	cc <__divsi3>
     5fc:	4782                	lw	a5,0(sp)
     5fe:	fd350513          	addi	a0,a0,-45
     602:	a38a                	sh	a0,0(a5)
     604:	00549513          	slli	a0,s1,0x5
     608:	8d05                	sub	a0,a0,s1
     60a:	050a                	slli	a0,a0,0x2
     60c:	67c1                	lui	a5,0x10
     60e:	9526                	add	a0,a0,s1
     610:	fff78593          	addi	a1,a5,-1 # ffff <_data_lma+0xd00f>
     614:	050e                	slli	a0,a0,0x3
     616:	3c5d                	jal	cc <__divsi3>
     618:	4792                	lw	a5,4(sp)
     61a:	a38a                	sh	a0,0(a5)
     61c:	8522                	mv	a0,s0
     61e:	0161                	addi	sp,sp,24
     620:	b469                	j	aa <__riscv_restore_0>
     622:	0ff00413          	li	s0,255
     626:	bfdd                	j	61c <scd4x_read_measurement+0xa0>

00000628 <NMI_Handler>:
     628:	30200073          	mret

0000062c <HardFault_Handler>:
     62c:	a001                	j	62c <HardFault_Handler>

0000062e <GPIO_Toggle_INIT>:
     62e:	a73ff2ef          	jal	t0,a0 <__riscv_save_0>
     632:	1151                	addi	sp,sp,-12
     634:	4585                	li	a1,1
     636:	02000513          	li	a0,32
     63a:	c002                	sw	zero,0(sp)
     63c:	c202                	sw	zero,4(sp)
     63e:	c402                	sw	zero,8(sp)
     640:	774000ef          	jal	ra,db4 <RCC_APB2PeriphClockCmd>
     644:	47a1                	li	a5,8
     646:	807c                	sh	a5,0(sp)
     648:	40011537          	lui	a0,0x40011
     64c:	47c1                	li	a5,16
     64e:	c43e                	sw	a5,8(sp)
     650:	858a                	mv	a1,sp
     652:	478d                	li	a5,3
     654:	40050513          	addi	a0,a0,1024 # 40011400 <__global_pointer$+0x20010bb8>
     658:	c23e                	sw	a5,4(sp)
     65a:	212d                	jal	a84 <GPIO_Init>
     65c:	0131                	addi	sp,sp,12
     65e:	b4b1                	j	aa <__riscv_restore_0>

00000660 <main>:
     660:	a41ff2ef          	jal	t0,a0 <__riscv_save_0>
     664:	fa410113          	addi	sp,sp,-92
     668:	4509                	li	a0,2
     66a:	2565                	jal	d12 <NVIC_PriorityGroupConfig>
     66c:	24e5                	jal	954 <SystemCoreClockUpdate>
     66e:	515000ef          	jal	ra,1382 <Delay_Init>
     672:	6571                	lui	a0,0x1c
     674:	20050513          	addi	a0,a0,512 # 1c200 <_data_lma+0x19210>
     678:	53f000ef          	jal	ra,13b6 <USART_Printf_Init>
     67c:	200007b7          	lui	a5,0x20000
     680:	0207a583          	lw	a1,32(a5) # 20000020 <SystemCoreClock>
     684:	00003537          	lui	a0,0x3
     688:	f7450513          	addi	a0,a0,-140 # 2f74 <Font7x10+0x76c>
     68c:	378010ef          	jal	ra,1a04 <printf>
     690:	26ed                	jal	a7a <DBGMCU_GetCHIPID>
     692:	85aa                	mv	a1,a0
     694:	00003537          	lui	a0,0x3
     698:	f8450513          	addi	a0,a0,-124 # 2f84 <Font7x10+0x77c>
     69c:	368010ef          	jal	ra,1a04 <printf>
     6a0:	00003537          	lui	a0,0x3
     6a4:	f9450513          	addi	a0,a0,-108 # 2f94 <Font7x10+0x78c>
     6a8:	3a8010ef          	jal	ra,1a50 <puts>
     6ac:	3749                	jal	62e <GPIO_Toggle_INIT>
     6ae:	45d000ef          	jal	ra,130a <Systick_Init>
     6b2:	00062537          	lui	a0,0x62
     6b6:	0ee00593          	li	a1,238
     6ba:	a8050513          	addi	a0,a0,-1408 # 61a80 <_data_lma+0x5ea90>
     6be:	027000ef          	jal	ra,ee4 <HAL_I2C_Init>
     6c2:	3e5d                	jal	278 <SSD1306_Init>
     6c4:	3d25                	jal	4fc <scd4x_Init>
     6c6:	4501                	li	a0,0
     6c8:	3e61                	jal	260 <SSD1306_Fill>
     6ca:	000035b7          	lui	a1,0x3
     6ce:	fa858593          	addi	a1,a1,-88 # 2fa8 <Font7x10+0x7a0>
     6d2:	0868                	addi	a0,sp,28
     6d4:	3c6010ef          	jal	ra,1a9a <strcpy>
     6d8:	4581                	li	a1,0
     6da:	4501                	li	a0,0
     6dc:	396d                	jal	396 <SSD1306_GotoXY>
     6de:	200007b7          	lui	a5,0x20000
     6e2:	00078593          	mv	a1,a5
     6e6:	4605                	li	a2,1
     6e8:	0868                	addi	a0,sp,28
     6ea:	3371                	jal	476 <SSD1306_Puts>
     6ec:	363d                	jal	21a <SSD1306_UpdateScreen>
     6ee:	5dc00513          	li	a0,1500
     6f2:	45b000ef          	jal	ra,134c <delay_1ms>
     6f6:	200007b7          	lui	a5,0x20000
     6fa:	00011b23          	sh	zero,22(sp)
     6fe:	00011c23          	sh	zero,24(sp)
     702:	00011d23          	sh	zero,26(sp)
     706:	4481                	li	s1,0
     708:	c002                	sw	zero,0(sp)
     70a:	4401                	li	s0,0
     70c:	c23e                	sw	a5,4(sp)
     70e:	3bf5                	jal	50a <scd4x_is_data_ready>
     710:	10051563          	bnez	a0,81a <main+0x1ba>
     714:	0830                	addi	a2,sp,24
     716:	01a10593          	addi	a1,sp,26
     71a:	01610513          	addi	a0,sp,22
     71e:	3db9                	jal	57c <scd4x_read_measurement>
     720:	44d000ef          	jal	ra,136c <get_tick>
     724:	4782                	lw	a5,0(sp)
     726:	06400593          	li	a1,100
     72a:	8d1d                	sub	a0,a0,a5
     72c:	9a9ff0ef          	jal	ra,d4 <__udivsi3>
     730:	842a                	mv	s0,a0
     732:	43b000ef          	jal	ra,136c <get_tick>
     736:	c02a                	sw	a0,0(sp)
     738:	0e049563          	bnez	s1,822 <main+0x1c2>
     73c:	4501                	li	a0,0
     73e:	360d                	jal	260 <SSD1306_Fill>
     740:	83b0                	lhu	a2,22(sp)
     742:	000037b7          	lui	a5,0x3
     746:	fb478593          	addi	a1,a5,-76 # 2fb4 <Font7x10+0x7ac>
     74a:	1868                	addi	a0,sp,60
     74c:	2dc010ef          	jal	ra,1a28 <sprintf>
     750:	4581                	li	a1,0
     752:	4501                	li	a0,0
     754:	3189                	jal	396 <SSD1306_GotoXY>
     756:	4792                	lw	a5,4(sp)
     758:	4605                	li	a2,1
     75a:	1868                	addi	a0,sp,60
     75c:	00078593          	mv	a1,a5
     760:	3b19                	jal	476 <SSD1306_Puts>
     762:	84bc                	lhu	a5,24(sp)
     764:	01a11703          	lh	a4,26(sp)
     768:	45a9                	li	a1,10
     76a:	853e                	mv	a0,a5
     76c:	c83a                	sw	a4,16(sp)
     76e:	c63e                	sw	a5,12(sp)
     770:	991ff0ef          	jal	ra,100 <__umodsi3>
     774:	47b2                	lw	a5,12(sp)
     776:	01051693          	slli	a3,a0,0x10
     77a:	82c1                	srli	a3,a3,0x10
     77c:	853e                	mv	a0,a5
     77e:	45a9                	li	a1,10
     780:	c436                	sw	a3,8(sp)
     782:	953ff0ef          	jal	ra,d4 <__udivsi3>
     786:	4742                	lw	a4,16(sp)
     788:	46a2                	lw	a3,8(sp)
     78a:	01051613          	slli	a2,a0,0x10
     78e:	000035b7          	lui	a1,0x3
     792:	8241                	srli	a2,a2,0x10
     794:	fc058593          	addi	a1,a1,-64 # 2fc0 <Font7x10+0x7b8>
     798:	1868                	addi	a0,sp,60
     79a:	28e010ef          	jal	ra,1a28 <sprintf>
     79e:	45e5                	li	a1,25
     7a0:	4501                	li	a0,0
     7a2:	3ed5                	jal	396 <SSD1306_GotoXY>
     7a4:	200007b7          	lui	a5,0x20000
     7a8:	00878593          	addi	a1,a5,8 # 20000008 <Font_7x10>
     7ac:	4605                	li	a2,1
     7ae:	1868                	addi	a0,sp,60
     7b0:	31d9                	jal	476 <SSD1306_Puts>
     7b2:	45a9                	li	a1,10
     7b4:	8522                	mv	a0,s0
     7b6:	94bff0ef          	jal	ra,100 <__umodsi3>
     7ba:	c42a                	sw	a0,8(sp)
     7bc:	45a9                	li	a1,10
     7be:	8522                	mv	a0,s0
     7c0:	915ff0ef          	jal	ra,d4 <__udivsi3>
     7c4:	46a2                	lw	a3,8(sp)
     7c6:	000035b7          	lui	a1,0x3
     7ca:	8726                	mv	a4,s1
     7cc:	862a                	mv	a2,a0
     7ce:	fd458593          	addi	a1,a1,-44 # 2fd4 <Font7x10+0x7cc>
     7d2:	1868                	addi	a0,sp,60
     7d4:	254010ef          	jal	ra,1a28 <sprintf>
     7d8:	02800593          	li	a1,40
     7dc:	4501                	li	a0,0
     7de:	3e65                	jal	396 <SSD1306_GotoXY>
     7e0:	200007b7          	lui	a5,0x20000
     7e4:	00878593          	addi	a1,a5,8 # 20000008 <Font_7x10>
     7e8:	4605                	li	a2,1
     7ea:	1868                	addi	a0,sp,60
     7ec:	3169                	jal	476 <SSD1306_Puts>
     7ee:	3435                	jal	21a <SSD1306_UpdateScreen>
     7f0:	4529                	li	a0,10
     7f2:	35b000ef          	jal	ra,134c <delay_1ms>
     7f6:	400117b7          	lui	a5,0x40011
     7fa:	40078513          	addi	a0,a5,1024 # 40011400 <__global_pointer$+0x20010bb8>
     7fe:	4601                	li	a2,0
     800:	45a1                	li	a1,8
     802:	2ea1                	jal	b5a <GPIO_WriteBit>
     804:	4505                	li	a0,1
     806:	347000ef          	jal	ra,134c <delay_1ms>
     80a:	400117b7          	lui	a5,0x40011
     80e:	4605                	li	a2,1
     810:	45a1                	li	a1,8
     812:	40078513          	addi	a0,a5,1024 # 40011400 <__global_pointer$+0x20010bb8>
     816:	2691                	jal	b5a <GPIO_WriteBit>
     818:	bddd                	j	70e <main+0xae>
     81a:	0f000793          	li	a5,240
     81e:	f0f50de3          	beq	a0,a5,738 <main+0xd8>
     822:	39e9                	jal	4fc <scd4x_Init>
     824:	00a034b3          	snez	s1,a0
     828:	bf11                	j	73c <main+0xdc>

0000082a <SystemInit>:
     82a:	400217b7          	lui	a5,0x40021
     82e:	4398                	lw	a4,0(a5)
     830:	fcff06b7          	lui	a3,0xfcff0
     834:	1161                	addi	sp,sp,-8
     836:	00176713          	ori	a4,a4,1
     83a:	c398                	sw	a4,0(a5)
     83c:	43d8                	lw	a4,4(a5)
     83e:	8f75                	and	a4,a4,a3
     840:	c3d8                	sw	a4,4(a5)
     842:	4398                	lw	a4,0(a5)
     844:	fef706b7          	lui	a3,0xfef70
     848:	16fd                	addi	a3,a3,-1
     84a:	8f75                	and	a4,a4,a3
     84c:	c398                	sw	a4,0(a5)
     84e:	4398                	lw	a4,0(a5)
     850:	fffc06b7          	lui	a3,0xfffc0
     854:	16fd                	addi	a3,a3,-1
     856:	8f75                	and	a4,a4,a3
     858:	c398                	sw	a4,0(a5)
     85a:	43d8                	lw	a4,4(a5)
     85c:	76c1                	lui	a3,0xffff0
     85e:	16fd                	addi	a3,a3,-1
     860:	8f75                	and	a4,a4,a3
     862:	c3d8                	sw	a4,4(a5)
     864:	009f0737          	lui	a4,0x9f0
     868:	c798                	sw	a4,8(a5)
     86a:	4f98                	lw	a4,24(a5)
     86c:	02076713          	ori	a4,a4,32
     870:	cf98                	sw	a4,24(a5)
     872:	40011737          	lui	a4,0x40011
     876:	40072683          	lw	a3,1024(a4) # 40011400 <__global_pointer$+0x20010bb8>
     87a:	40070613          	addi	a2,a4,1024
     87e:	f0f6f693          	andi	a3,a3,-241
     882:	40d72023          	sw	a3,1024(a4)
     886:	40072683          	lw	a3,1024(a4)
     88a:	0806e693          	ori	a3,a3,128
     88e:	40d72023          	sw	a3,1024(a4)
     892:	4709                	li	a4,2
     894:	ca18                	sw	a4,16(a2)
     896:	c002                	sw	zero,0(sp)
     898:	c202                	sw	zero,4(sp)
     89a:	4f98                	lw	a4,24(a5)
     89c:	400106b7          	lui	a3,0x40010
     8a0:	6621                	lui	a2,0x8
     8a2:	00176713          	ori	a4,a4,1
     8a6:	cf98                	sw	a4,24(a5)
     8a8:	42d8                	lw	a4,4(a3)
     8aa:	8f51                	or	a4,a4,a2
     8ac:	c2d8                	sw	a4,4(a3)
     8ae:	4398                	lw	a4,0(a5)
     8b0:	66c1                	lui	a3,0x10
     8b2:	00020637          	lui	a2,0x20
     8b6:	8f55                	or	a4,a4,a3
     8b8:	c398                	sw	a4,0(a5)
     8ba:	400216b7          	lui	a3,0x40021
     8be:	6709                	lui	a4,0x2
     8c0:	429c                	lw	a5,0(a3)
     8c2:	8ff1                	and	a5,a5,a2
     8c4:	c23e                	sw	a5,4(sp)
     8c6:	4782                	lw	a5,0(sp)
     8c8:	0785                	addi	a5,a5,1
     8ca:	c03e                	sw	a5,0(sp)
     8cc:	4792                	lw	a5,4(sp)
     8ce:	e781                	bnez	a5,8d6 <SystemInit+0xac>
     8d0:	4782                	lw	a5,0(sp)
     8d2:	fee797e3          	bne	a5,a4,8c0 <SystemInit+0x96>
     8d6:	400217b7          	lui	a5,0x40021
     8da:	439c                	lw	a5,0(a5)
     8dc:	00e79713          	slli	a4,a5,0xe
     8e0:	06075863          	bgez	a4,950 <SystemInit+0x126>
     8e4:	4785                	li	a5,1
     8e6:	c23e                	sw	a5,4(sp)
     8e8:	4712                	lw	a4,4(sp)
     8ea:	4785                	li	a5,1
     8ec:	06f71063          	bne	a4,a5,94c <SystemInit+0x122>
     8f0:	400227b7          	lui	a5,0x40022
     8f4:	4398                	lw	a4,0(a5)
     8f6:	76c1                	lui	a3,0xffff0
     8f8:	16fd                	addi	a3,a3,-1
     8fa:	9b71                	andi	a4,a4,-4
     8fc:	c398                	sw	a4,0(a5)
     8fe:	4398                	lw	a4,0(a5)
     900:	00176713          	ori	a4,a4,1
     904:	c398                	sw	a4,0(a5)
     906:	400217b7          	lui	a5,0x40021
     90a:	43d8                	lw	a4,4(a5)
     90c:	c3d8                	sw	a4,4(a5)
     90e:	43d8                	lw	a4,4(a5)
     910:	8f75                	and	a4,a4,a3
     912:	c3d8                	sw	a4,4(a5)
     914:	43d8                	lw	a4,4(a5)
     916:	66c1                	lui	a3,0x10
     918:	8f55                	or	a4,a4,a3
     91a:	c3d8                	sw	a4,4(a5)
     91c:	4398                	lw	a4,0(a5)
     91e:	010006b7          	lui	a3,0x1000
     922:	8f55                	or	a4,a4,a3
     924:	c398                	sw	a4,0(a5)
     926:	4398                	lw	a4,0(a5)
     928:	00671693          	slli	a3,a4,0x6
     92c:	fe06dde3          	bgez	a3,926 <SystemInit+0xfc>
     930:	43d8                	lw	a4,4(a5)
     932:	400216b7          	lui	a3,0x40021
     936:	9b71                	andi	a4,a4,-4
     938:	c3d8                	sw	a4,4(a5)
     93a:	43d8                	lw	a4,4(a5)
     93c:	00276713          	ori	a4,a4,2
     940:	c3d8                	sw	a4,4(a5)
     942:	4721                	li	a4,8
     944:	42dc                	lw	a5,4(a3)
     946:	8bb1                	andi	a5,a5,12
     948:	fee79ee3          	bne	a5,a4,944 <SystemInit+0x11a>
     94c:	0121                	addi	sp,sp,8
     94e:	8082                	ret
     950:	c202                	sw	zero,4(sp)
     952:	bf59                	j	8e8 <SystemInit+0xbe>

00000954 <SystemCoreClockUpdate>:
     954:	f4cff2ef          	jal	t0,a0 <__riscv_save_0>
     958:	40021737          	lui	a4,0x40021
     95c:	435c                	lw	a5,4(a4)
     95e:	20000437          	lui	s0,0x20000
     962:	4691                	li	a3,4
     964:	8bb1                	andi	a5,a5,12
     966:	02040413          	addi	s0,s0,32 # 20000020 <SystemCoreClock>
     96a:	00d78563          	beq	a5,a3,974 <SystemCoreClockUpdate+0x20>
     96e:	46a1                	li	a3,8
     970:	04d78263          	beq	a5,a3,9b4 <SystemCoreClockUpdate+0x60>
     974:	016e37b7          	lui	a5,0x16e3
     978:	60078793          	addi	a5,a5,1536 # 16e3600 <_data_lma+0x16e0610>
     97c:	c01c                	sw	a5,0(s0)
     97e:	400216b7          	lui	a3,0x40021
     982:	42dc                	lw	a5,4(a3)
     984:	4008                	lw	a0,0(s0)
     986:	8391                	srli	a5,a5,0x4
     988:	00f7f713          	andi	a4,a5,15
     98c:	200007b7          	lui	a5,0x20000
     990:	01078793          	addi	a5,a5,16 # 20000010 <AHBPrescTable>
     994:	97ba                	add	a5,a5,a4
     996:	238c                	lbu	a1,0(a5)
     998:	42dc                	lw	a5,4(a3)
     99a:	0ff5f593          	andi	a1,a1,255
     99e:	0807f793          	andi	a5,a5,128
     9a2:	00b55733          	srl	a4,a0,a1
     9a6:	e781                	bnez	a5,9ae <SystemCoreClockUpdate+0x5a>
     9a8:	f2cff0ef          	jal	ra,d4 <__udivsi3>
     9ac:	872a                	mv	a4,a0
     9ae:	c018                	sw	a4,0(s0)
     9b0:	efaff06f          	j	aa <__riscv_restore_0>
     9b4:	435c                	lw	a5,4(a4)
     9b6:	02dc77b7          	lui	a5,0x2dc7
     9ba:	c0078793          	addi	a5,a5,-1024 # 2dc6c00 <_data_lma+0x2dc3c10>
     9be:	bf7d                	j	97c <SystemCoreClockUpdate+0x28>
     9c0:	a001                	j	9c0 <SystemCoreClockUpdate+0x6c>
     9c2:	a001                	j	9c2 <SystemCoreClockUpdate+0x6e>
     9c4:	a001                	j	9c4 <SystemCoreClockUpdate+0x70>

000009c6 <SW_Handler>:
     9c6:	a001                	j	9c6 <SW_Handler>

000009c8 <WWDG_IRQHandler>:
     9c8:	a001                	j	9c8 <WWDG_IRQHandler>

000009ca <PVD_IRQHandler>:
     9ca:	a001                	j	9ca <PVD_IRQHandler>

000009cc <FLASH_IRQHandler>:
     9cc:	a001                	j	9cc <FLASH_IRQHandler>

000009ce <RCC_IRQHandler>:
     9ce:	a001                	j	9ce <RCC_IRQHandler>

000009d0 <EXTI7_0_IRQHandler>:
     9d0:	a001                	j	9d0 <EXTI7_0_IRQHandler>

000009d2 <AWU_IRQHandler>:
     9d2:	a001                	j	9d2 <AWU_IRQHandler>

000009d4 <DMA1_Channel1_IRQHandler>:
     9d4:	a001                	j	9d4 <DMA1_Channel1_IRQHandler>

000009d6 <DMA1_Channel2_IRQHandler>:
     9d6:	a001                	j	9d6 <DMA1_Channel2_IRQHandler>

000009d8 <DMA1_Channel3_IRQHandler>:
     9d8:	a001                	j	9d8 <DMA1_Channel3_IRQHandler>

000009da <DMA1_Channel4_IRQHandler>:
     9da:	a001                	j	9da <DMA1_Channel4_IRQHandler>

000009dc <DMA1_Channel5_IRQHandler>:
     9dc:	a001                	j	9dc <DMA1_Channel5_IRQHandler>

000009de <DMA1_Channel6_IRQHandler>:
     9de:	a001                	j	9de <DMA1_Channel6_IRQHandler>

000009e0 <DMA1_Channel7_IRQHandler>:
     9e0:	a001                	j	9e0 <DMA1_Channel7_IRQHandler>

000009e2 <ADC1_IRQHandler>:
     9e2:	a001                	j	9e2 <ADC1_IRQHandler>

000009e4 <I2C1_EV_IRQHandler>:
     9e4:	a001                	j	9e4 <I2C1_EV_IRQHandler>

000009e6 <I2C1_ER_IRQHandler>:
     9e6:	a001                	j	9e6 <I2C1_ER_IRQHandler>

000009e8 <USART1_IRQHandler>:
     9e8:	a001                	j	9e8 <USART1_IRQHandler>

000009ea <SPI1_IRQHandler>:
     9ea:	a001                	j	9ea <SPI1_IRQHandler>

000009ec <TIM1_BRK_IRQHandler>:
     9ec:	a001                	j	9ec <TIM1_BRK_IRQHandler>

000009ee <TIM1_UP_IRQHandler>:
     9ee:	a001                	j	9ee <TIM1_UP_IRQHandler>

000009f0 <TIM1_TRG_COM_IRQHandler>:
     9f0:	a001                	j	9f0 <TIM1_TRG_COM_IRQHandler>

000009f2 <TIM1_CC_IRQHandler>:
     9f2:	a001                	j	9f2 <TIM1_CC_IRQHandler>

000009f4 <TIM2_IRQHandler>:
     9f4:	a001                	j	9f4 <TIM2_IRQHandler>

000009f6 <handle_reset>:
     9f6:	20000197          	auipc	gp,0x20000
     9fa:	e5218193          	addi	gp,gp,-430 # 20000848 <__global_pointer$>
     9fe:	fb818113          	addi	sp,gp,-72 # 20000800 <_eusrstack>
     a02:	00002517          	auipc	a0,0x2
     a06:	5ee50513          	addi	a0,a0,1518 # 2ff0 <_data_lma>
     a0a:	1ffff597          	auipc	a1,0x1ffff
     a0e:	5f658593          	addi	a1,a1,1526 # 20000000 <_data_vma>
     a12:	1ffff617          	auipc	a2,0x1ffff
     a16:	63660613          	addi	a2,a2,1590 # 20000048 <_edata>
     a1a:	00c5fa63          	bgeu	a1,a2,a2e <handle_reset+0x38>
     a1e:	00052283          	lw	t0,0(a0)
     a22:	0055a023          	sw	t0,0(a1)
     a26:	0511                	addi	a0,a0,4
     a28:	0591                	addi	a1,a1,4
     a2a:	fec5eae3          	bltu	a1,a2,a1e <handle_reset+0x28>
     a2e:	1ffff517          	auipc	a0,0x1ffff
     a32:	61a50513          	addi	a0,a0,1562 # 20000048 <_edata>
     a36:	c1c18593          	addi	a1,gp,-996 # 20000464 <_ebss>
     a3a:	00b57763          	bgeu	a0,a1,a48 <handle_reset+0x52>
     a3e:	00052023          	sw	zero,0(a0)
     a42:	0511                	addi	a0,a0,4
     a44:	feb56de3          	bltu	a0,a1,a3e <handle_reset+0x48>
     a48:	08000293          	li	t0,128
     a4c:	30029073          	csrw	mstatus,t0
     a50:	428d                	li	t0,3
     a52:	80429073          	csrw	0x804,t0
     a56:	fffff297          	auipc	t0,0xfffff
     a5a:	5aa28293          	addi	t0,t0,1450 # 0 <_sinit>
     a5e:	0032e293          	ori	t0,t0,3
     a62:	30529073          	csrw	mtvec,t0
     a66:	dc5ff0ef          	jal	ra,82a <SystemInit>
     a6a:	00000297          	auipc	t0,0x0
     a6e:	bf628293          	addi	t0,t0,-1034 # 660 <main>
     a72:	34129073          	csrw	mepc,t0
     a76:	30200073          	mret

00000a7a <DBGMCU_GetCHIPID>:
     a7a:	1ffff7b7          	lui	a5,0x1ffff
     a7e:	7c47a503          	lw	a0,1988(a5) # 1ffff7c4 <_data_lma+0x1fffc7d4>
     a82:	8082                	ret

00000a84 <GPIO_Init>:
     a84:	459c                	lw	a5,8(a1)
     a86:	1161                	addi	sp,sp,-8
     a88:	c222                	sw	s0,4(sp)
     a8a:	c026                	sw	s1,0(sp)
     a8c:	0107f713          	andi	a4,a5,16
     a90:	00f7f313          	andi	t1,a5,15
     a94:	c701                	beqz	a4,a9c <GPIO_Init+0x18>
     a96:	41d8                	lw	a4,4(a1)
     a98:	00e36333          	or	t1,t1,a4
     a9c:	2192                	lhu	a2,0(a1)
     a9e:	0ff67713          	andi	a4,a2,255
     aa2:	c729                	beqz	a4,aec <GPIO_Init+0x68>
     aa4:	00052383          	lw	t2,0(a0)
     aa8:	4701                	li	a4,0
     aaa:	02800413          	li	s0,40
     aae:	04800493          	li	s1,72
     ab2:	4685                	li	a3,1
     ab4:	00e695b3          	sll	a1,a3,a4
     ab8:	00b676b3          	and	a3,a2,a1
     abc:	02d59263          	bne	a1,a3,ae0 <GPIO_Init+0x5c>
     ac0:	00271293          	slli	t0,a4,0x2
     ac4:	46bd                	li	a3,15
     ac6:	005696b3          	sll	a3,a3,t0
     aca:	fff6c693          	not	a3,a3
     ace:	0076f3b3          	and	t2,a3,t2
     ad2:	005312b3          	sll	t0,t1,t0
     ad6:	0072e3b3          	or	t2,t0,t2
     ada:	06879763          	bne	a5,s0,b48 <GPIO_Init+0xc4>
     ade:	c94c                	sw	a1,20(a0)
     ae0:	0705                	addi	a4,a4,1
     ae2:	46a1                	li	a3,8
     ae4:	fcd717e3          	bne	a4,a3,ab2 <GPIO_Init+0x2e>
     ae8:	00752023          	sw	t2,0(a0)
     aec:	0ff00713          	li	a4,255
     af0:	04c77863          	bgeu	a4,a2,b40 <GPIO_Init+0xbc>
     af4:	00452383          	lw	t2,4(a0)
     af8:	46a1                	li	a3,8
     afa:	02800413          	li	s0,40
     afe:	04800493          	li	s1,72
     b02:	4705                	li	a4,1
     b04:	00d712b3          	sll	t0,a4,a3
     b08:	00567733          	and	a4,a2,t0
     b0c:	02e29463          	bne	t0,a4,b34 <GPIO_Init+0xb0>
     b10:	00269713          	slli	a4,a3,0x2
     b14:	1701                	addi	a4,a4,-32
     b16:	45bd                	li	a1,15
     b18:	00e595b3          	sll	a1,a1,a4
     b1c:	fff5c593          	not	a1,a1
     b20:	0075f3b3          	and	t2,a1,t2
     b24:	00e31733          	sll	a4,t1,a4
     b28:	007763b3          	or	t2,a4,t2
     b2c:	02879263          	bne	a5,s0,b50 <GPIO_Init+0xcc>
     b30:	00552a23          	sw	t0,20(a0)
     b34:	0685                	addi	a3,a3,1
     b36:	4741                	li	a4,16
     b38:	fce695e3          	bne	a3,a4,b02 <GPIO_Init+0x7e>
     b3c:	00752223          	sw	t2,4(a0)
     b40:	4412                	lw	s0,4(sp)
     b42:	4482                	lw	s1,0(sp)
     b44:	0121                	addi	sp,sp,8
     b46:	8082                	ret
     b48:	f8979ce3          	bne	a5,s1,ae0 <GPIO_Init+0x5c>
     b4c:	c90c                	sw	a1,16(a0)
     b4e:	bf49                	j	ae0 <GPIO_Init+0x5c>
     b50:	fe9792e3          	bne	a5,s1,b34 <GPIO_Init+0xb0>
     b54:	00552823          	sw	t0,16(a0)
     b58:	bff1                	j	b34 <GPIO_Init+0xb0>

00000b5a <GPIO_WriteBit>:
     b5a:	c219                	beqz	a2,b60 <GPIO_WriteBit+0x6>
     b5c:	c90c                	sw	a1,16(a0)
     b5e:	8082                	ret
     b60:	c94c                	sw	a1,20(a0)
     b62:	8082                	ret

00000b64 <I2C_Init>:
     b64:	d3cff2ef          	jal	t0,a0 <__riscv_save_0>
     b68:	1111                	addi	sp,sp,-28
     b6a:	2146                	lhu	s1,4(a0)
     b6c:	842a                	mv	s0,a0
     b6e:	0028                	addi	a0,sp,8
     b70:	c02e                	sw	a1,0(sp)
     b72:	225d                	jal	d18 <RCC_GetClocksFreq>
     b74:	46c2                	lw	a3,16(sp)
     b76:	04c2                	slli	s1,s1,0x10
     b78:	80c1                	srli	s1,s1,0x10
     b7a:	fc04f493          	andi	s1,s1,-64
     b7e:	000f45b7          	lui	a1,0xf4
     b82:	24058593          	addi	a1,a1,576 # f4240 <_data_lma+0xf1250>
     b86:	8536                	mv	a0,a3
     b88:	04c2                	slli	s1,s1,0x10
     b8a:	c236                	sw	a3,4(sp)
     b8c:	80c1                	srli	s1,s1,0x10
     b8e:	d46ff0ef          	jal	ra,d4 <__udivsi3>
     b92:	8d45                	or	a0,a0,s1
     b94:	0542                	slli	a0,a0,0x10
     b96:	8141                	srli	a0,a0,0x10
     b98:	a04a                	sh	a0,4(s0)
     b9a:	201e                	lhu	a5,0(s0)
     b9c:	4692                	lw	a3,4(sp)
     b9e:	07c2                	slli	a5,a5,0x10
     ba0:	83c1                	srli	a5,a5,0x10
     ba2:	9bf9                	andi	a5,a5,-2
     ba4:	07c2                	slli	a5,a5,0x10
     ba6:	83c1                	srli	a5,a5,0x10
     ba8:	a01e                	sh	a5,0(s0)
     baa:	4782                	lw	a5,0(sp)
     bac:	4390                	lw	a2,0(a5)
     bae:	67e1                	lui	a5,0x18
     bb0:	6a078793          	addi	a5,a5,1696 # 186a0 <_data_lma+0x156b0>
     bb4:	00161593          	slli	a1,a2,0x1
     bb8:	04c7e663          	bltu	a5,a2,c04 <I2C_Init+0xa0>
     bbc:	8536                	mv	a0,a3
     bbe:	d16ff0ef          	jal	ra,d4 <__udivsi3>
     bc2:	87aa                	mv	a5,a0
     bc4:	0542                	slli	a0,a0,0x10
     bc6:	8141                	srli	a0,a0,0x10
     bc8:	4691                	li	a3,4
     bca:	00d57363          	bgeu	a0,a3,bd0 <I2C_Init+0x6c>
     bce:	4791                	li	a5,4
     bd0:	01079513          	slli	a0,a5,0x10
     bd4:	8141                	srli	a0,a0,0x10
     bd6:	ac4a                	sh	a0,28(s0)
     bd8:	201e                	lhu	a5,0(s0)
     bda:	4702                	lw	a4,0(sp)
     bdc:	0017e793          	ori	a5,a5,1
     be0:	a01e                	sh	a5,0(s0)
     be2:	201e                	lhu	a5,0(s0)
     be4:	2356                	lhu	a3,4(a4)
     be6:	2732                	lhu	a2,10(a4)
     be8:	07c2                	slli	a5,a5,0x10
     bea:	83c1                	srli	a5,a5,0x10
     bec:	8ed1                	or	a3,a3,a2
     bee:	bf57f793          	andi	a5,a5,-1035
     bf2:	8fd5                	or	a5,a5,a3
     bf4:	a01e                	sh	a5,0(s0)
     bf6:	2716                	lhu	a3,8(a4)
     bf8:	275e                	lhu	a5,12(a4)
     bfa:	8fd5                	or	a5,a5,a3
     bfc:	a41e                	sh	a5,8(s0)
     bfe:	0171                	addi	sp,sp,28
     c00:	caaff06f          	j	aa <__riscv_restore_0>
     c04:	4782                	lw	a5,0(sp)
     c06:	23ea                	lhu	a0,6(a5)
     c08:	67b1                	lui	a5,0xc
     c0a:	17fd                	addi	a5,a5,-1
     c0c:	02f51063          	bne	a0,a5,c2c <I2C_Init+0xc8>
     c10:	95b2                	add	a1,a1,a2
     c12:	8536                	mv	a0,a3
     c14:	cc0ff0ef          	jal	ra,d4 <__udivsi3>
     c18:	0542                	slli	a0,a0,0x10
     c1a:	8141                	srli	a0,a0,0x10
     c1c:	01451793          	slli	a5,a0,0x14
     c20:	e399                	bnez	a5,c26 <I2C_Init+0xc2>
     c22:	00156513          	ori	a0,a0,1
     c26:	67a1                	lui	a5,0x8
     c28:	8d5d                	or	a0,a0,a5
     c2a:	b775                	j	bd6 <I2C_Init+0x72>
     c2c:	00c587b3          	add	a5,a1,a2
     c30:	078e                	slli	a5,a5,0x3
     c32:	00c785b3          	add	a1,a5,a2
     c36:	8536                	mv	a0,a3
     c38:	c9cff0ef          	jal	ra,d4 <__udivsi3>
     c3c:	0542                	slli	a0,a0,0x10
     c3e:	8141                	srli	a0,a0,0x10
     c40:	6791                	lui	a5,0x4
     c42:	8d5d                	or	a0,a0,a5
     c44:	bfe1                	j	c1c <I2C_Init+0xb8>

00000c46 <I2C_Cmd>:
     c46:	211e                	lhu	a5,0(a0)
     c48:	c589                	beqz	a1,c52 <I2C_Cmd+0xc>
     c4a:	0017e793          	ori	a5,a5,1
     c4e:	a11e                	sh	a5,0(a0)
     c50:	8082                	ret
     c52:	07c2                	slli	a5,a5,0x10
     c54:	83c1                	srli	a5,a5,0x10
     c56:	9bf9                	andi	a5,a5,-2
     c58:	07c2                	slli	a5,a5,0x10
     c5a:	83c1                	srli	a5,a5,0x10
     c5c:	bfcd                	j	c4e <I2C_Cmd+0x8>

00000c5e <I2C_GenerateSTART>:
     c5e:	211e                	lhu	a5,0(a0)
     c60:	c589                	beqz	a1,c6a <I2C_GenerateSTART+0xc>
     c62:	1007e793          	ori	a5,a5,256
     c66:	a11e                	sh	a5,0(a0)
     c68:	8082                	ret
     c6a:	07c2                	slli	a5,a5,0x10
     c6c:	83c1                	srli	a5,a5,0x10
     c6e:	eff7f793          	andi	a5,a5,-257
     c72:	07c2                	slli	a5,a5,0x10
     c74:	83c1                	srli	a5,a5,0x10
     c76:	bfc5                	j	c66 <I2C_GenerateSTART+0x8>

00000c78 <I2C_GenerateSTOP>:
     c78:	211e                	lhu	a5,0(a0)
     c7a:	c589                	beqz	a1,c84 <I2C_GenerateSTOP+0xc>
     c7c:	2007e793          	ori	a5,a5,512
     c80:	a11e                	sh	a5,0(a0)
     c82:	8082                	ret
     c84:	07c2                	slli	a5,a5,0x10
     c86:	83c1                	srli	a5,a5,0x10
     c88:	dff7f793          	andi	a5,a5,-513
     c8c:	07c2                	slli	a5,a5,0x10
     c8e:	83c1                	srli	a5,a5,0x10
     c90:	bfc5                	j	c80 <I2C_GenerateSTOP+0x8>

00000c92 <I2C_AcknowledgeConfig>:
     c92:	211e                	lhu	a5,0(a0)
     c94:	c589                	beqz	a1,c9e <I2C_AcknowledgeConfig+0xc>
     c96:	4007e793          	ori	a5,a5,1024
     c9a:	a11e                	sh	a5,0(a0)
     c9c:	8082                	ret
     c9e:	07c2                	slli	a5,a5,0x10
     ca0:	83c1                	srli	a5,a5,0x10
     ca2:	bff7f793          	andi	a5,a5,-1025
     ca6:	07c2                	slli	a5,a5,0x10
     ca8:	83c1                	srli	a5,a5,0x10
     caa:	bfc5                	j	c9a <I2C_AcknowledgeConfig+0x8>

00000cac <I2C_SendData>:
     cac:	a90e                	sh	a1,16(a0)
     cae:	8082                	ret

00000cb0 <I2C_ReceiveData>:
     cb0:	290a                	lhu	a0,16(a0)
     cb2:	0ff57513          	andi	a0,a0,255
     cb6:	8082                	ret

00000cb8 <I2C_Send7bitAddress>:
     cb8:	0fe5f793          	andi	a5,a1,254
     cbc:	c219                	beqz	a2,cc2 <I2C_Send7bitAddress+0xa>
     cbe:	0015e793          	ori	a5,a1,1
     cc2:	07c2                	slli	a5,a5,0x10
     cc4:	83c1                	srli	a5,a5,0x10
     cc6:	a91e                	sh	a5,16(a0)
     cc8:	8082                	ret

00000cca <I2C_CheckEvent>:
     cca:	295e                	lhu	a5,20(a0)
     ccc:	2d0a                	lhu	a0,24(a0)
     cce:	0542                	slli	a0,a0,0x10
     cd0:	8d5d                	or	a0,a0,a5
     cd2:	8d6d                	and	a0,a0,a1
     cd4:	0522                	slli	a0,a0,0x8
     cd6:	8121                	srli	a0,a0,0x8
     cd8:	8d0d                	sub	a0,a0,a1
     cda:	00153513          	seqz	a0,a0
     cde:	8082                	ret

00000ce0 <I2C_GetFlagStatus>:
     ce0:	1161                	addi	sp,sp,-8
     ce2:	c002                	sw	zero,0(sp)
     ce4:	c202                	sw	zero,4(sp)
     ce6:	01c5d793          	srli	a5,a1,0x1c
     cea:	c22a                	sw	a0,4(sp)
     cec:	c03e                	sw	a5,0(sp)
     cee:	4782                	lw	a5,0(sp)
     cf0:	05a2                	slli	a1,a1,0x8
     cf2:	81a1                	srli	a1,a1,0x8
     cf4:	cb99                	beqz	a5,d0a <I2C_GetFlagStatus+0x2a>
     cf6:	4792                	lw	a5,4(sp)
     cf8:	07d1                	addi	a5,a5,20
     cfa:	c23e                	sw	a5,4(sp)
     cfc:	4792                	lw	a5,4(sp)
     cfe:	4388                	lw	a0,0(a5)
     d00:	0121                	addi	sp,sp,8
     d02:	8d6d                	and	a0,a0,a1
     d04:	00a03533          	snez	a0,a0
     d08:	8082                	ret
     d0a:	4792                	lw	a5,4(sp)
     d0c:	81c1                	srli	a1,a1,0x10
     d0e:	07e1                	addi	a5,a5,24
     d10:	b7ed                	j	cfa <I2C_GetFlagStatus+0x1a>

00000d12 <NVIC_PriorityGroupConfig>:
     d12:	c0a1a623          	sw	a0,-1012(gp) # 20000454 <NVIC_Priority_Group>
     d16:	8082                	ret

00000d18 <RCC_GetClocksFreq>:
     d18:	b88ff2ef          	jal	t0,a0 <__riscv_save_0>
     d1c:	40021737          	lui	a4,0x40021
     d20:	435c                	lw	a5,4(a4)
     d22:	4691                	li	a3,4
     d24:	842a                	mv	s0,a0
     d26:	8bb1                	andi	a5,a5,12
     d28:	00d78563          	beq	a5,a3,d32 <RCC_GetClocksFreq+0x1a>
     d2c:	46a1                	li	a3,8
     d2e:	06d78d63          	beq	a5,a3,da8 <RCC_GetClocksFreq+0x90>
     d32:	016e37b7          	lui	a5,0x16e3
     d36:	60078793          	addi	a5,a5,1536 # 16e3600 <_data_lma+0x16e0610>
     d3a:	c01c                	sw	a5,0(s0)
     d3c:	400216b7          	lui	a3,0x40021
     d40:	42dc                	lw	a5,4(a3)
     d42:	8391                	srli	a5,a5,0x4
     d44:	00f7f713          	andi	a4,a5,15
     d48:	200007b7          	lui	a5,0x20000
     d4c:	03878793          	addi	a5,a5,56 # 20000038 <APBAHBPrescTable>
     d50:	97ba                	add	a5,a5,a4
     d52:	238c                	lbu	a1,0(a5)
     d54:	42dc                	lw	a5,4(a3)
     d56:	4018                	lw	a4,0(s0)
     d58:	0ff5f593          	andi	a1,a1,255
     d5c:	0807f793          	andi	a5,a5,128
     d60:	00b75533          	srl	a0,a4,a1
     d64:	e781                	bnez	a5,d6c <RCC_GetClocksFreq+0x54>
     d66:	853a                	mv	a0,a4
     d68:	b6cff0ef          	jal	ra,d4 <__udivsi3>
     d6c:	c048                	sw	a0,4(s0)
     d6e:	c408                	sw	a0,8(s0)
     d70:	c448                	sw	a0,12(s0)
     d72:	400217b7          	lui	a5,0x40021
     d76:	43dc                	lw	a5,4(a5)
     d78:	83ad                	srli	a5,a5,0xb
     d7a:	8bfd                	andi	a5,a5,31
     d7c:	0037d713          	srli	a4,a5,0x3
     d80:	078a                	slli	a5,a5,0x2
     d82:	8bf1                	andi	a5,a5,28
     d84:	8fd9                	or	a5,a5,a4
     d86:	0137f693          	andi	a3,a5,19
     d8a:	470d                	li	a4,3
     d8c:	00d77363          	bgeu	a4,a3,d92 <RCC_GetClocksFreq+0x7a>
     d90:	17d1                	addi	a5,a5,-12
     d92:	20000737          	lui	a4,0x20000
     d96:	02470713          	addi	a4,a4,36 # 20000024 <ADCPrescTable>
     d9a:	97ba                	add	a5,a5,a4
     d9c:	238c                	lbu	a1,0(a5)
     d9e:	b36ff0ef          	jal	ra,d4 <__udivsi3>
     da2:	c808                	sw	a0,16(s0)
     da4:	b06ff06f          	j	aa <__riscv_restore_0>
     da8:	435c                	lw	a5,4(a4)
     daa:	02dc77b7          	lui	a5,0x2dc7
     dae:	c0078793          	addi	a5,a5,-1024 # 2dc6c00 <_data_lma+0x2dc3c10>
     db2:	b761                	j	d3a <RCC_GetClocksFreq+0x22>

00000db4 <RCC_APB2PeriphClockCmd>:
     db4:	c599                	beqz	a1,dc2 <RCC_APB2PeriphClockCmd+0xe>
     db6:	40021737          	lui	a4,0x40021
     dba:	4f1c                	lw	a5,24(a4)
     dbc:	8d5d                	or	a0,a0,a5
     dbe:	cf08                	sw	a0,24(a4)
     dc0:	8082                	ret
     dc2:	400217b7          	lui	a5,0x40021
     dc6:	4f98                	lw	a4,24(a5)
     dc8:	fff54513          	not	a0,a0
     dcc:	8d79                	and	a0,a0,a4
     dce:	cf88                	sw	a0,24(a5)
     dd0:	8082                	ret

00000dd2 <RCC_APB1PeriphClockCmd>:
     dd2:	c599                	beqz	a1,de0 <RCC_APB1PeriphClockCmd+0xe>
     dd4:	40021737          	lui	a4,0x40021
     dd8:	4f5c                	lw	a5,28(a4)
     dda:	8d5d                	or	a0,a0,a5
     ddc:	cf48                	sw	a0,28(a4)
     dde:	8082                	ret
     de0:	400217b7          	lui	a5,0x40021
     de4:	4fd8                	lw	a4,28(a5)
     de6:	fff54513          	not	a0,a0
     dea:	8d79                	and	a0,a0,a4
     dec:	cfc8                	sw	a0,28(a5)
     dee:	8082                	ret

00000df0 <USART_Init>:
     df0:	ab0ff2ef          	jal	t0,a0 <__riscv_save_0>
     df4:	2916                	lhu	a3,16(a0)
     df6:	77f5                	lui	a5,0xffffd
     df8:	17fd                	addi	a5,a5,-1
     dfa:	8ff5                	and	a5,a5,a3
     dfc:	21f6                	lhu	a3,6(a1)
     dfe:	25da                	lhu	a4,12(a1)
     e00:	1121                	addi	sp,sp,-24
     e02:	8fd5                	or	a5,a5,a3
     e04:	a91e                	sh	a5,16(a0)
     e06:	2556                	lhu	a3,12(a0)
     e08:	77fd                	lui	a5,0xfffff
     e0a:	9f378793          	addi	a5,a5,-1549 # ffffe9f3 <__global_pointer$+0xdfffe1ab>
     e0e:	8ff5                	and	a5,a5,a3
     e10:	21d6                	lhu	a3,4(a1)
     e12:	842a                	mv	s0,a0
     e14:	c02e                	sw	a1,0(sp)
     e16:	8fd5                	or	a5,a5,a3
     e18:	2596                	lhu	a3,8(a1)
     e1a:	8fd5                	or	a5,a5,a3
     e1c:	25b6                	lhu	a3,10(a1)
     e1e:	8fd5                	or	a5,a5,a3
     e20:	a55e                	sh	a5,12(a0)
     e22:	295e                	lhu	a5,20(a0)
     e24:	07c2                	slli	a5,a5,0x10
     e26:	83c1                	srli	a5,a5,0x10
     e28:	cff7f793          	andi	a5,a5,-769
     e2c:	8f5d                	or	a4,a4,a5
     e2e:	a95a                	sh	a4,20(a0)
     e30:	0048                	addi	a0,sp,4
     e32:	35dd                	jal	d18 <RCC_GetClocksFreq>
     e34:	400147b7          	lui	a5,0x40014
     e38:	80078793          	addi	a5,a5,-2048 # 40013800 <__global_pointer$+0x20012fb8>
     e3c:	4582                	lw	a1,0(sp)
     e3e:	06f41263          	bne	s0,a5,ea2 <USART_Init+0xb2>
     e42:	47c2                	lw	a5,16(sp)
     e44:	245a                	lhu	a4,12(s0)
     e46:	00179513          	slli	a0,a5,0x1
     e4a:	953e                	add	a0,a0,a5
     e4c:	0742                	slli	a4,a4,0x10
     e4e:	050e                	slli	a0,a0,0x3
     e50:	8741                	srai	a4,a4,0x10
     e52:	953e                	add	a0,a0,a5
     e54:	418c                	lw	a1,0(a1)
     e56:	04075863          	bgez	a4,ea6 <USART_Init+0xb6>
     e5a:	0586                	slli	a1,a1,0x1
     e5c:	a78ff0ef          	jal	ra,d4 <__udivsi3>
     e60:	06400593          	li	a1,100
     e64:	c02a                	sw	a0,0(sp)
     e66:	a6eff0ef          	jal	ra,d4 <__udivsi3>
     e6a:	4782                	lw	a5,0(sp)
     e6c:	00451493          	slli	s1,a0,0x4
     e70:	06400593          	li	a1,100
     e74:	853e                	mv	a0,a5
     e76:	a8aff0ef          	jal	ra,100 <__umodsi3>
     e7a:	245e                	lhu	a5,12(s0)
     e7c:	07c2                	slli	a5,a5,0x10
     e7e:	87c1                	srai	a5,a5,0x10
     e80:	0207d563          	bgez	a5,eaa <USART_Init+0xba>
     e84:	050e                	slli	a0,a0,0x3
     e86:	06400593          	li	a1,100
     e8a:	03250513          	addi	a0,a0,50
     e8e:	a46ff0ef          	jal	ra,d4 <__udivsi3>
     e92:	891d                	andi	a0,a0,7
     e94:	8cc9                	or	s1,s1,a0
     e96:	04c2                	slli	s1,s1,0x10
     e98:	80c1                	srli	s1,s1,0x10
     e9a:	a406                	sh	s1,8(s0)
     e9c:	0161                	addi	sp,sp,24
     e9e:	a0cff06f          	j	aa <__riscv_restore_0>
     ea2:	47b2                	lw	a5,12(sp)
     ea4:	b745                	j	e44 <USART_Init+0x54>
     ea6:	058a                	slli	a1,a1,0x2
     ea8:	bf55                	j	e5c <USART_Init+0x6c>
     eaa:	0512                	slli	a0,a0,0x4
     eac:	06400593          	li	a1,100
     eb0:	03250513          	addi	a0,a0,50
     eb4:	a20ff0ef          	jal	ra,d4 <__udivsi3>
     eb8:	893d                	andi	a0,a0,15
     eba:	bfe9                	j	e94 <USART_Init+0xa4>

00000ebc <USART_Cmd>:
     ebc:	c591                	beqz	a1,ec8 <USART_Cmd+0xc>
     ebe:	255e                	lhu	a5,12(a0)
     ec0:	6709                	lui	a4,0x2
     ec2:	8fd9                	or	a5,a5,a4
     ec4:	a55e                	sh	a5,12(a0)
     ec6:	8082                	ret
     ec8:	255a                	lhu	a4,12(a0)
     eca:	77f9                	lui	a5,0xffffe
     ecc:	17fd                	addi	a5,a5,-1
     ece:	8ff9                	and	a5,a5,a4
     ed0:	bfd5                	j	ec4 <USART_Cmd+0x8>

00000ed2 <USART_SendData>:
     ed2:	1ff5f593          	andi	a1,a1,511
     ed6:	a14e                	sh	a1,4(a0)
     ed8:	8082                	ret

00000eda <USART_GetFlagStatus>:
     eda:	210a                	lhu	a0,0(a0)
     edc:	8d6d                	and	a0,a0,a1
     ede:	00a03533          	snez	a0,a0
     ee2:	8082                	ret

00000ee4 <HAL_I2C_Init>:
     ee4:	9bcff2ef          	jal	t0,a0 <__riscv_save_0>
     ee8:	fdc10113          	addi	sp,sp,-36
     eec:	c22a                	sw	a0,4(sp)
     eee:	c02e                	sw	a1,0(sp)
     ef0:	4545                	li	a0,17
     ef2:	4585                	li	a1,1
     ef4:	c402                	sw	zero,8(sp)
     ef6:	c602                	sw	zero,12(sp)
     ef8:	c802                	sw	zero,16(sp)
     efa:	ca02                	sw	zero,20(sp)
     efc:	cc02                	sw	zero,24(sp)
     efe:	ce02                	sw	zero,28(sp)
     f00:	d002                	sw	zero,32(sp)
     f02:	3d4d                	jal	db4 <RCC_APB2PeriphClockCmd>
     f04:	4585                	li	a1,1
     f06:	00200537          	lui	a0,0x200
     f0a:	35e1                	jal	dd2 <RCC_APB1PeriphClockCmd>
     f0c:	4691                	li	a3,4
     f0e:	44f1                	li	s1,28
     f10:	440d                	li	s0,3
     f12:	002c                	addi	a1,sp,8
     f14:	40011537          	lui	a0,0x40011
     f18:	8474                	sh	a3,8(sp)
     f1a:	c826                	sw	s1,16(sp)
     f1c:	c622                	sw	s0,12(sp)
     f1e:	369d                	jal	a84 <GPIO_Init>
     f20:	4689                	li	a3,2
     f22:	002c                	addi	a1,sp,8
     f24:	40011537          	lui	a0,0x40011
     f28:	8474                	sh	a3,8(sp)
     f2a:	c826                	sw	s1,16(sp)
     f2c:	c622                	sw	s0,12(sp)
     f2e:	3e99                	jal	a84 <GPIO_Init>
     f30:	4782                	lw	a5,0(sp)
     f32:	4712                	lw	a4,4(sp)
     f34:	40005437          	lui	s0,0x40005
     f38:	86fc                	sh	a5,28(sp)
     f3a:	40000793          	li	a5,1024
     f3e:	ca3a                	sw	a4,20(sp)
     f40:	87fc                	sh	a5,30(sp)
     f42:	bfff0737          	lui	a4,0xbfff0
     f46:	6791                	lui	a5,0x4
     f48:	084c                	addi	a1,sp,20
     f4a:	40040513          	addi	a0,s0,1024 # 40005400 <__global_pointer$+0x20004bb8>
     f4e:	cc3a                	sw	a4,24(sp)
     f50:	02f11023          	sh	a5,32(sp)
     f54:	3901                	jal	b64 <I2C_Init>
     f56:	40040513          	addi	a0,s0,1024
     f5a:	4585                	li	a1,1
     f5c:	31ed                	jal	c46 <I2C_Cmd>
     f5e:	4585                	li	a1,1
     f60:	40040513          	addi	a0,s0,1024
     f64:	333d                	jal	c92 <I2C_AcknowledgeConfig>
     f66:	02410113          	addi	sp,sp,36
     f6a:	940ff06f          	j	aa <__riscv_restore_0>

00000f6e <HAL_I2C_Transmit>:
     f6e:	932ff2ef          	jal	t0,a0 <__riscv_save_0>
     f72:	1131                	addi	sp,sp,-20
     f74:	842a                	mv	s0,a0
     f76:	c62e                	sw	a1,12(sp)
     f78:	c432                	sw	a2,8(sp)
     f7a:	c836                	sw	a3,16(sp)
     f7c:	c23a                	sw	a4,4(sp)
     f7e:	26fd                	jal	136c <get_tick>
     f80:	c02a                	sw	a0,0(sp)
     f82:	000205b7          	lui	a1,0x20
     f86:	8522                	mv	a0,s0
     f88:	3ba1                	jal	ce0 <I2C_GetFlagStatus>
     f8a:	c519                	beqz	a0,f98 <HAL_I2C_Transmit+0x2a>
     f8c:	26c5                	jal	136c <get_tick>
     f8e:	4782                	lw	a5,0(sp)
     f90:	8d1d                	sub	a0,a0,a5
     f92:	4792                	lw	a5,4(sp)
     f94:	fef567e3          	bltu	a0,a5,f82 <HAL_I2C_Transmit+0x14>
     f98:	2ed1                	jal	136c <get_tick>
     f9a:	4782                	lw	a5,0(sp)
     f9c:	8d1d                	sub	a0,a0,a5
     f9e:	4792                	lw	a5,4(sp)
     fa0:	00f56963          	bltu	a0,a5,fb2 <HAL_I2C_Transmit+0x44>
     fa4:	8522                	mv	a0,s0
     fa6:	4585                	li	a1,1
     fa8:	39c1                	jal	c78 <I2C_GenerateSTOP>
     faa:	450d                	li	a0,3
     fac:	0151                	addi	sp,sp,20
     fae:	8fcff06f          	j	aa <__riscv_restore_0>
     fb2:	4585                	li	a1,1
     fb4:	8522                	mv	a0,s0
     fb6:	000304b7          	lui	s1,0x30
     fba:	3155                	jal	c5e <I2C_GenerateSTART>
     fbc:	0485                	addi	s1,s1,1
     fbe:	40005537          	lui	a0,0x40005
     fc2:	85a6                	mv	a1,s1
     fc4:	40050513          	addi	a0,a0,1024 # 40005400 <__global_pointer$+0x20004bb8>
     fc8:	3309                	jal	cca <I2C_CheckEvent>
     fca:	e519                	bnez	a0,fd8 <HAL_I2C_Transmit+0x6a>
     fcc:	2645                	jal	136c <get_tick>
     fce:	4782                	lw	a5,0(sp)
     fd0:	8d1d                	sub	a0,a0,a5
     fd2:	4792                	lw	a5,4(sp)
     fd4:	fef565e3          	bltu	a0,a5,fbe <HAL_I2C_Transmit+0x50>
     fd8:	2e51                	jal	136c <get_tick>
     fda:	4782                	lw	a5,0(sp)
     fdc:	8d1d                	sub	a0,a0,a5
     fde:	4792                	lw	a5,4(sp)
     fe0:	fcf572e3          	bgeu	a0,a5,fa4 <HAL_I2C_Transmit+0x36>
     fe4:	45b2                	lw	a1,12(sp)
     fe6:	4601                	li	a2,0
     fe8:	8522                	mv	a0,s0
     fea:	000704b7          	lui	s1,0x70
     fee:	31e9                	jal	cb8 <I2C_Send7bitAddress>
     ff0:	08248493          	addi	s1,s1,130 # 70082 <_data_lma+0x6d092>
     ff4:	85a6                	mv	a1,s1
     ff6:	8522                	mv	a0,s0
     ff8:	39c9                	jal	cca <I2C_CheckEvent>
     ffa:	e519                	bnez	a0,1008 <HAL_I2C_Transmit+0x9a>
     ffc:	2e85                	jal	136c <get_tick>
     ffe:	4782                	lw	a5,0(sp)
    1000:	8d1d                	sub	a0,a0,a5
    1002:	4792                	lw	a5,4(sp)
    1004:	fef568e3          	bltu	a0,a5,ff4 <HAL_I2C_Transmit+0x86>
    1008:	2695                	jal	136c <get_tick>
    100a:	4782                	lw	a5,0(sp)
    100c:	8d1d                	sub	a0,a0,a5
    100e:	4792                	lw	a5,4(sp)
    1010:	00f57f63          	bgeu	a0,a5,102e <HAL_I2C_Transmit+0xc0>
    1014:	47a2                	lw	a5,8(sp)
    1016:	4742                	lw	a4,16(sp)
    1018:	97ba                	add	a5,a5,a4
    101a:	c63e                	sw	a5,12(sp)
    101c:	47a2                	lw	a5,8(sp)
    101e:	4732                	lw	a4,12(sp)
    1020:	00e79c63          	bne	a5,a4,1038 <HAL_I2C_Transmit+0xca>
    1024:	8522                	mv	a0,s0
    1026:	4585                	li	a1,1
    1028:	3981                	jal	c78 <I2C_GenerateSTOP>
    102a:	4501                	li	a0,0
    102c:	b741                	j	fac <HAL_I2C_Transmit+0x3e>
    102e:	8522                	mv	a0,s0
    1030:	4585                	li	a1,1
    1032:	3199                	jal	c78 <I2C_GenerateSTOP>
    1034:	4505                	li	a0,1
    1036:	bf9d                	j	fac <HAL_I2C_Transmit+0x3e>
    1038:	47a2                	lw	a5,8(sp)
    103a:	8522                	mv	a0,s0
    103c:	000704b7          	lui	s1,0x70
    1040:	238c                	lbu	a1,0(a5)
    1042:	08448493          	addi	s1,s1,132 # 70084 <_data_lma+0x6d094>
    1046:	319d                	jal	cac <I2C_SendData>
    1048:	47a2                	lw	a5,8(sp)
    104a:	0785                	addi	a5,a5,1
    104c:	c43e                	sw	a5,8(sp)
    104e:	85a6                	mv	a1,s1
    1050:	8522                	mv	a0,s0
    1052:	39a5                	jal	cca <I2C_CheckEvent>
    1054:	e519                	bnez	a0,1062 <HAL_I2C_Transmit+0xf4>
    1056:	2e19                	jal	136c <get_tick>
    1058:	4782                	lw	a5,0(sp)
    105a:	8d1d                	sub	a0,a0,a5
    105c:	4792                	lw	a5,4(sp)
    105e:	fef568e3          	bltu	a0,a5,104e <HAL_I2C_Transmit+0xe0>
    1062:	2629                	jal	136c <get_tick>
    1064:	4782                	lw	a5,0(sp)
    1066:	8d1d                	sub	a0,a0,a5
    1068:	4792                	lw	a5,4(sp)
    106a:	faf569e3          	bltu	a0,a5,101c <HAL_I2C_Transmit+0xae>
    106e:	8522                	mv	a0,s0
    1070:	4585                	li	a1,1
    1072:	3119                	jal	c78 <I2C_GenerateSTOP>
    1074:	4509                	li	a0,2
    1076:	bf1d                	j	fac <HAL_I2C_Transmit+0x3e>

00001078 <HAL_I2C_Receive>:
    1078:	828ff2ef          	jal	t0,a0 <__riscv_save_0>
    107c:	1121                	addi	sp,sp,-24
    107e:	842a                	mv	s0,a0
    1080:	84ae                	mv	s1,a1
    1082:	c632                	sw	a2,12(sp)
    1084:	c436                	sw	a3,8(sp)
    1086:	c23a                	sw	a4,4(sp)
    1088:	24d5                	jal	136c <get_tick>
    108a:	c02a                	sw	a0,0(sp)
    108c:	000205b7          	lui	a1,0x20
    1090:	8522                	mv	a0,s0
    1092:	31b9                	jal	ce0 <I2C_GetFlagStatus>
    1094:	c519                	beqz	a0,10a2 <HAL_I2C_Receive+0x2a>
    1096:	2cd9                	jal	136c <get_tick>
    1098:	4782                	lw	a5,0(sp)
    109a:	8d1d                	sub	a0,a0,a5
    109c:	4792                	lw	a5,4(sp)
    109e:	fef567e3          	bltu	a0,a5,108c <HAL_I2C_Receive+0x14>
    10a2:	24e9                	jal	136c <get_tick>
    10a4:	4782                	lw	a5,0(sp)
    10a6:	4712                	lw	a4,4(sp)
    10a8:	40f507b3          	sub	a5,a0,a5
    10ac:	450d                	li	a0,3
    10ae:	04e7f563          	bgeu	a5,a4,10f8 <HAL_I2C_Receive+0x80>
    10b2:	40005537          	lui	a0,0x40005
    10b6:	4585                	li	a1,1
    10b8:	40050513          	addi	a0,a0,1024 # 40005400 <__global_pointer$+0x20004bb8>
    10bc:	ba3ff0ef          	jal	ra,c5e <I2C_GenerateSTART>
    10c0:	000307b7          	lui	a5,0x30
    10c4:	0785                	addi	a5,a5,1
    10c6:	c83e                	sw	a5,16(sp)
    10c8:	45c2                	lw	a1,16(sp)
    10ca:	40005537          	lui	a0,0x40005
    10ce:	40050513          	addi	a0,a0,1024 # 40005400 <__global_pointer$+0x20004bb8>
    10d2:	3ee5                	jal	cca <I2C_CheckEvent>
    10d4:	e519                	bnez	a0,10e2 <HAL_I2C_Receive+0x6a>
    10d6:	2c59                	jal	136c <get_tick>
    10d8:	4782                	lw	a5,0(sp)
    10da:	8d1d                	sub	a0,a0,a5
    10dc:	4792                	lw	a5,4(sp)
    10de:	fef565e3          	bltu	a0,a5,10c8 <HAL_I2C_Receive+0x50>
    10e2:	2469                	jal	136c <get_tick>
    10e4:	4782                	lw	a5,0(sp)
    10e6:	8d1d                	sub	a0,a0,a5
    10e8:	4792                	lw	a5,4(sp)
    10ea:	00f56a63          	bltu	a0,a5,10fe <HAL_I2C_Receive+0x86>
    10ee:	8522                	mv	a0,s0
    10f0:	4585                	li	a1,1
    10f2:	b87ff0ef          	jal	ra,c78 <I2C_GenerateSTOP>
    10f6:	450d                	li	a0,3
    10f8:	0161                	addi	sp,sp,24
    10fa:	fb1fe06f          	j	aa <__riscv_restore_0>
    10fe:	85a6                	mv	a1,s1
    1100:	4605                	li	a2,1
    1102:	8522                	mv	a0,s0
    1104:	000304b7          	lui	s1,0x30
    1108:	bb1ff0ef          	jal	ra,cb8 <I2C_Send7bitAddress>
    110c:	0489                	addi	s1,s1,2
    110e:	85a6                	mv	a1,s1
    1110:	8522                	mv	a0,s0
    1112:	bb9ff0ef          	jal	ra,cca <I2C_CheckEvent>
    1116:	e519                	bnez	a0,1124 <HAL_I2C_Receive+0xac>
    1118:	2c91                	jal	136c <get_tick>
    111a:	4782                	lw	a5,0(sp)
    111c:	8d1d                	sub	a0,a0,a5
    111e:	4792                	lw	a5,4(sp)
    1120:	fef567e3          	bltu	a0,a5,110e <HAL_I2C_Receive+0x96>
    1124:	24a1                	jal	136c <get_tick>
    1126:	4782                	lw	a5,0(sp)
    1128:	4585                	li	a1,1
    112a:	8d1d                	sub	a0,a0,a5
    112c:	4792                	lw	a5,4(sp)
    112e:	00f56763          	bltu	a0,a5,113c <HAL_I2C_Receive+0xc4>
    1132:	8522                	mv	a0,s0
    1134:	b45ff0ef          	jal	ra,c78 <I2C_GenerateSTOP>
    1138:	4505                	li	a0,1
    113a:	bf7d                	j	10f8 <HAL_I2C_Receive+0x80>
    113c:	8522                	mv	a0,s0
    113e:	b55ff0ef          	jal	ra,c92 <I2C_AcknowledgeConfig>
    1142:	47a2                	lw	a5,8(sp)
    1144:	4481                	li	s1,0
    1146:	17f9                	addi	a5,a5,-2
    1148:	ca3e                	sw	a5,20(sp)
    114a:	4722                	lw	a4,8(sp)
    114c:	01049793          	slli	a5,s1,0x10
    1150:	83c1                	srli	a5,a5,0x10
    1152:	04e7f163          	bgeu	a5,a4,1194 <HAL_I2C_Receive+0x11c>
    1156:	100007b7          	lui	a5,0x10000
    115a:	04078793          	addi	a5,a5,64 # 10000040 <_data_lma+0xfffd050>
    115e:	c83e                	sw	a5,16(sp)
    1160:	45c2                	lw	a1,16(sp)
    1162:	8522                	mv	a0,s0
    1164:	b7dff0ef          	jal	ra,ce0 <I2C_GetFlagStatus>
    1168:	e519                	bnez	a0,1176 <HAL_I2C_Receive+0xfe>
    116a:	2409                	jal	136c <get_tick>
    116c:	4782                	lw	a5,0(sp)
    116e:	8d1d                	sub	a0,a0,a5
    1170:	4792                	lw	a5,4(sp)
    1172:	fef567e3          	bltu	a0,a5,1160 <HAL_I2C_Receive+0xe8>
    1176:	47d2                	lw	a5,20(sp)
    1178:	00979663          	bne	a5,s1,1184 <HAL_I2C_Receive+0x10c>
    117c:	4581                	li	a1,0
    117e:	8522                	mv	a0,s0
    1180:	b13ff0ef          	jal	ra,c92 <I2C_AcknowledgeConfig>
    1184:	8522                	mv	a0,s0
    1186:	b2bff0ef          	jal	ra,cb0 <I2C_ReceiveData>
    118a:	47b2                	lw	a5,12(sp)
    118c:	97a6                	add	a5,a5,s1
    118e:	a388                	sb	a0,0(a5)
    1190:	0485                	addi	s1,s1,1
    1192:	bf65                	j	114a <HAL_I2C_Receive+0xd2>
    1194:	2ae1                	jal	136c <get_tick>
    1196:	4782                	lw	a5,0(sp)
    1198:	4585                	li	a1,1
    119a:	8d1d                	sub	a0,a0,a5
    119c:	4792                	lw	a5,4(sp)
    119e:	00a7f763          	bgeu	a5,a0,11ac <HAL_I2C_Receive+0x134>
    11a2:	8522                	mv	a0,s0
    11a4:	ad5ff0ef          	jal	ra,c78 <I2C_GenerateSTOP>
    11a8:	4509                	li	a0,2
    11aa:	b7b9                	j	10f8 <HAL_I2C_Receive+0x80>
    11ac:	8522                	mv	a0,s0
    11ae:	acbff0ef          	jal	ra,c78 <I2C_GenerateSTOP>
    11b2:	4501                	li	a0,0
    11b4:	b791                	j	10f8 <HAL_I2C_Receive+0x80>

000011b6 <HAL_I2C_Mem_Write>:
    11b6:	eebfe2ef          	jal	t0,a0 <__riscv_save_0>
    11ba:	1121                	addi	sp,sp,-24
    11bc:	842a                	mv	s0,a0
    11be:	c62e                	sw	a1,12(sp)
    11c0:	c832                	sw	a2,16(sp)
    11c2:	c436                	sw	a3,8(sp)
    11c4:	ca3a                	sw	a4,20(sp)
    11c6:	c23e                	sw	a5,4(sp)
    11c8:	2255                	jal	136c <get_tick>
    11ca:	c02a                	sw	a0,0(sp)
    11cc:	000205b7          	lui	a1,0x20
    11d0:	8522                	mv	a0,s0
    11d2:	b0fff0ef          	jal	ra,ce0 <I2C_GetFlagStatus>
    11d6:	c519                	beqz	a0,11e4 <HAL_I2C_Mem_Write+0x2e>
    11d8:	2a51                	jal	136c <get_tick>
    11da:	4782                	lw	a5,0(sp)
    11dc:	8d1d                	sub	a0,a0,a5
    11de:	4792                	lw	a5,4(sp)
    11e0:	fef566e3          	bltu	a0,a5,11cc <HAL_I2C_Mem_Write+0x16>
    11e4:	2261                	jal	136c <get_tick>
    11e6:	4782                	lw	a5,0(sp)
    11e8:	8d1d                	sub	a0,a0,a5
    11ea:	4792                	lw	a5,4(sp)
    11ec:	00f56a63          	bltu	a0,a5,1200 <HAL_I2C_Mem_Write+0x4a>
    11f0:	8522                	mv	a0,s0
    11f2:	4585                	li	a1,1
    11f4:	a85ff0ef          	jal	ra,c78 <I2C_GenerateSTOP>
    11f8:	450d                	li	a0,3
    11fa:	0161                	addi	sp,sp,24
    11fc:	eaffe06f          	j	aa <__riscv_restore_0>
    1200:	4585                	li	a1,1
    1202:	8522                	mv	a0,s0
    1204:	000304b7          	lui	s1,0x30
    1208:	a57ff0ef          	jal	ra,c5e <I2C_GenerateSTART>
    120c:	0485                	addi	s1,s1,1
    120e:	40005537          	lui	a0,0x40005
    1212:	85a6                	mv	a1,s1
    1214:	40050513          	addi	a0,a0,1024 # 40005400 <__global_pointer$+0x20004bb8>
    1218:	ab3ff0ef          	jal	ra,cca <I2C_CheckEvent>
    121c:	e519                	bnez	a0,122a <HAL_I2C_Mem_Write+0x74>
    121e:	22b9                	jal	136c <get_tick>
    1220:	4782                	lw	a5,0(sp)
    1222:	8d1d                	sub	a0,a0,a5
    1224:	4792                	lw	a5,4(sp)
    1226:	fef564e3          	bltu	a0,a5,120e <HAL_I2C_Mem_Write+0x58>
    122a:	2289                	jal	136c <get_tick>
    122c:	4782                	lw	a5,0(sp)
    122e:	8d1d                	sub	a0,a0,a5
    1230:	4792                	lw	a5,4(sp)
    1232:	faf57fe3          	bgeu	a0,a5,11f0 <HAL_I2C_Mem_Write+0x3a>
    1236:	45b2                	lw	a1,12(sp)
    1238:	4601                	li	a2,0
    123a:	8522                	mv	a0,s0
    123c:	000704b7          	lui	s1,0x70
    1240:	a79ff0ef          	jal	ra,cb8 <I2C_Send7bitAddress>
    1244:	08248493          	addi	s1,s1,130 # 70082 <_data_lma+0x6d092>
    1248:	85a6                	mv	a1,s1
    124a:	8522                	mv	a0,s0
    124c:	a7fff0ef          	jal	ra,cca <I2C_CheckEvent>
    1250:	e519                	bnez	a0,125e <HAL_I2C_Mem_Write+0xa8>
    1252:	2a29                	jal	136c <get_tick>
    1254:	4782                	lw	a5,0(sp)
    1256:	8d1d                	sub	a0,a0,a5
    1258:	4792                	lw	a5,4(sp)
    125a:	fef567e3          	bltu	a0,a5,1248 <HAL_I2C_Mem_Write+0x92>
    125e:	2239                	jal	136c <get_tick>
    1260:	4782                	lw	a5,0(sp)
    1262:	8d1d                	sub	a0,a0,a5
    1264:	4792                	lw	a5,4(sp)
    1266:	00f56863          	bltu	a0,a5,1276 <HAL_I2C_Mem_Write+0xc0>
    126a:	8522                	mv	a0,s0
    126c:	4585                	li	a1,1
    126e:	a0bff0ef          	jal	ra,c78 <I2C_GenerateSTOP>
    1272:	4505                	li	a0,1
    1274:	b759                	j	11fa <HAL_I2C_Mem_Write+0x44>
    1276:	45c2                	lw	a1,16(sp)
    1278:	8522                	mv	a0,s0
    127a:	000704b7          	lui	s1,0x70
    127e:	a2fff0ef          	jal	ra,cac <I2C_SendData>
    1282:	08448493          	addi	s1,s1,132 # 70084 <_data_lma+0x6d094>
    1286:	85a6                	mv	a1,s1
    1288:	8522                	mv	a0,s0
    128a:	a41ff0ef          	jal	ra,cca <I2C_CheckEvent>
    128e:	e519                	bnez	a0,129c <HAL_I2C_Mem_Write+0xe6>
    1290:	28f1                	jal	136c <get_tick>
    1292:	4782                	lw	a5,0(sp)
    1294:	8d1d                	sub	a0,a0,a5
    1296:	4792                	lw	a5,4(sp)
    1298:	fef567e3          	bltu	a0,a5,1286 <HAL_I2C_Mem_Write+0xd0>
    129c:	28c1                	jal	136c <get_tick>
    129e:	4782                	lw	a5,0(sp)
    12a0:	8d1d                	sub	a0,a0,a5
    12a2:	4792                	lw	a5,4(sp)
    12a4:	04f57d63          	bgeu	a0,a5,12fe <HAL_I2C_Mem_Write+0x148>
    12a8:	47a2                	lw	a5,8(sp)
    12aa:	4752                	lw	a4,20(sp)
    12ac:	97ba                	add	a5,a5,a4
    12ae:	c63e                	sw	a5,12(sp)
    12b0:	47a2                	lw	a5,8(sp)
    12b2:	4732                	lw	a4,12(sp)
    12b4:	00e79863          	bne	a5,a4,12c4 <HAL_I2C_Mem_Write+0x10e>
    12b8:	8522                	mv	a0,s0
    12ba:	4585                	li	a1,1
    12bc:	9bdff0ef          	jal	ra,c78 <I2C_GenerateSTOP>
    12c0:	4501                	li	a0,0
    12c2:	bf25                	j	11fa <HAL_I2C_Mem_Write+0x44>
    12c4:	47a2                	lw	a5,8(sp)
    12c6:	8522                	mv	a0,s0
    12c8:	000704b7          	lui	s1,0x70
    12cc:	238c                	lbu	a1,0(a5)
    12ce:	08448493          	addi	s1,s1,132 # 70084 <_data_lma+0x6d094>
    12d2:	9dbff0ef          	jal	ra,cac <I2C_SendData>
    12d6:	47a2                	lw	a5,8(sp)
    12d8:	0785                	addi	a5,a5,1
    12da:	c43e                	sw	a5,8(sp)
    12dc:	85a6                	mv	a1,s1
    12de:	8522                	mv	a0,s0
    12e0:	9ebff0ef          	jal	ra,cca <I2C_CheckEvent>
    12e4:	e519                	bnez	a0,12f2 <HAL_I2C_Mem_Write+0x13c>
    12e6:	2059                	jal	136c <get_tick>
    12e8:	4782                	lw	a5,0(sp)
    12ea:	8d1d                	sub	a0,a0,a5
    12ec:	4792                	lw	a5,4(sp)
    12ee:	fef567e3          	bltu	a0,a5,12dc <HAL_I2C_Mem_Write+0x126>
    12f2:	28ad                	jal	136c <get_tick>
    12f4:	4782                	lw	a5,0(sp)
    12f6:	8d1d                	sub	a0,a0,a5
    12f8:	4792                	lw	a5,4(sp)
    12fa:	faf56be3          	bltu	a0,a5,12b0 <HAL_I2C_Mem_Write+0xfa>
    12fe:	8522                	mv	a0,s0
    1300:	4585                	li	a1,1
    1302:	977ff0ef          	jal	ra,c78 <I2C_GenerateSTOP>
    1306:	4509                	li	a0,2
    1308:	bdcd                	j	11fa <HAL_I2C_Mem_Write+0x44>

0000130a <Systick_Init>:
    130a:	d97fe2ef          	jal	t0,a0 <__riscv_save_0>
    130e:	6705                	lui	a4,0x1
    1310:	e000e7b7          	lui	a5,0xe000e
    1314:	e000f437          	lui	s0,0xe000f
    1318:	10e7a023          	sw	a4,256(a5) # e000e100 <__global_pointer$+0xc000d8b8>
    131c:	405c                	lw	a5,4(s0)
    131e:	3e800593          	li	a1,1000
    1322:	9bf9                	andi	a5,a5,-2
    1324:	c05c                	sw	a5,4(s0)
    1326:	200007b7          	lui	a5,0x20000
    132a:	0207a503          	lw	a0,32(a5) # 20000020 <SystemCoreClock>
    132e:	da7fe0ef          	jal	ra,d4 <__udivsi3>
    1332:	c808                	sw	a0,16(s0)
    1334:	00042423          	sw	zero,8(s0) # e000f008 <__global_pointer$+0xc000e7c0>
    1338:	47bd                	li	a5,15
    133a:	c01c                	sw	a5,0(s0)
    133c:	d6ffe06f          	j	aa <__riscv_restore_0>

00001340 <Systick_Increment>:
    1340:	c1418793          	addi	a5,gp,-1004 # 2000045c <ticks>
    1344:	4398                	lw	a4,0(a5)
    1346:	0705                	addi	a4,a4,1
    1348:	c398                	sw	a4,0(a5)
    134a:	8082                	ret

0000134c <delay_1ms>:
    134c:	c1018713          	addi	a4,gp,-1008 # 20000458 <delay>
    1350:	c308                	sw	a0,0(a4)
    1352:	c1018793          	addi	a5,gp,-1008 # 20000458 <delay>
    1356:	4398                	lw	a4,0(a5)
    1358:	ff7d                	bnez	a4,1356 <delay_1ms+0xa>
    135a:	8082                	ret

0000135c <delay_decrement>:
    135c:	c1018793          	addi	a5,gp,-1008 # 20000458 <delay>
    1360:	4398                	lw	a4,0(a5)
    1362:	c701                	beqz	a4,136a <delay_decrement+0xe>
    1364:	4398                	lw	a4,0(a5)
    1366:	177d                	addi	a4,a4,-1
    1368:	c398                	sw	a4,0(a5)
    136a:	8082                	ret

0000136c <get_tick>:
    136c:	c141a503          	lw	a0,-1004(gp) # 2000045c <ticks>
    1370:	8082                	ret

00001372 <SysTick_Handler>:
    1372:	e000f7b7          	lui	a5,0xe000f
    1376:	0007a223          	sw	zero,4(a5) # e000f004 <__global_pointer$+0xc000e7bc>
    137a:	37d9                	jal	1340 <Systick_Increment>
    137c:	37c5                	jal	135c <delay_decrement>
    137e:	30200073          	mret

00001382 <Delay_Init>:
    1382:	d1ffe2ef          	jal	t0,a0 <__riscv_save_0>
    1386:	200007b7          	lui	a5,0x20000
    138a:	0207a503          	lw	a0,32(a5) # 20000020 <SystemCoreClock>
    138e:	007a15b7          	lui	a1,0x7a1
    1392:	20058593          	addi	a1,a1,512 # 7a1200 <_data_lma+0x79e210>
    1396:	d3ffe0ef          	jal	ra,d4 <__udivsi3>
    139a:	0ff57513          	andi	a0,a0,255
    139e:	c0a18d23          	sb	a0,-998(gp) # 20000462 <p_us>
    13a2:	00551793          	slli	a5,a0,0x5
    13a6:	8f89                	sub	a5,a5,a0
    13a8:	078a                	slli	a5,a5,0x2
    13aa:	953e                	add	a0,a0,a5
    13ac:	050e                	slli	a0,a0,0x3
    13ae:	c0a19c23          	sh	a0,-1000(gp) # 20000460 <p_ms>
    13b2:	cf9fe06f          	j	aa <__riscv_restore_0>

000013b6 <USART_Printf_Init>:
    13b6:	cebfe2ef          	jal	t0,a0 <__riscv_save_0>
    13ba:	842a                	mv	s0,a0
    13bc:	6511                	lui	a0,0x4
    13be:	1111                	addi	sp,sp,-28
    13c0:	4585                	li	a1,1
    13c2:	02050513          	addi	a0,a0,32 # 4020 <_data_lma+0x1030>
    13c6:	9efff0ef          	jal	ra,db4 <RCC_APB2PeriphClockCmd>
    13ca:	02000793          	li	a5,32
    13ce:	807c                	sh	a5,0(sp)
    13d0:	40011537          	lui	a0,0x40011
    13d4:	478d                	li	a5,3
    13d6:	c23e                	sw	a5,4(sp)
    13d8:	858a                	mv	a1,sp
    13da:	47e1                	li	a5,24
    13dc:	40050513          	addi	a0,a0,1024 # 40011400 <__global_pointer$+0x20010bb8>
    13e0:	c43e                	sw	a5,8(sp)
    13e2:	ea2ff0ef          	jal	ra,a84 <GPIO_Init>
    13e6:	c622                	sw	s0,12(sp)
    13e8:	40014437          	lui	s0,0x40014
    13ec:	000807b7          	lui	a5,0x80
    13f0:	006c                	addi	a1,sp,12
    13f2:	80040513          	addi	a0,s0,-2048 # 40013800 <__global_pointer$+0x20012fb8>
    13f6:	ca3e                	sw	a5,20(sp)
    13f8:	c802                	sw	zero,16(sp)
    13fa:	00011c23          	sh	zero,24(sp)
    13fe:	9f3ff0ef          	jal	ra,df0 <USART_Init>
    1402:	4585                	li	a1,1
    1404:	80040513          	addi	a0,s0,-2048
    1408:	ab5ff0ef          	jal	ra,ebc <USART_Cmd>
    140c:	0171                	addi	sp,sp,28
    140e:	c9dfe06f          	j	aa <__riscv_restore_0>

00001412 <_write>:
    1412:	c8ffe2ef          	jal	t0,a0 <__riscv_save_0>
    1416:	1171                	addi	sp,sp,-4
    1418:	84ae                	mv	s1,a1
    141a:	4401                	li	s0,0
    141c:	02c45f63          	bge	s0,a2,145a <_write+0x48>
    1420:	400147b7          	lui	a5,0x40014
    1424:	80078713          	addi	a4,a5,-2048 # 40013800 <__global_pointer$+0x20012fb8>
    1428:	853a                	mv	a0,a4
    142a:	04000593          	li	a1,64
    142e:	c032                	sw	a2,0(sp)
    1430:	aabff0ef          	jal	ra,eda <USART_GetFlagStatus>
    1434:	400147b7          	lui	a5,0x40014
    1438:	80078713          	addi	a4,a5,-2048 # 40013800 <__global_pointer$+0x20012fb8>
    143c:	4602                	lw	a2,0(sp)
    143e:	d56d                	beqz	a0,1428 <_write+0x16>
    1440:	00848733          	add	a4,s1,s0
    1444:	00070583          	lb	a1,0(a4) # 1000 <HAL_I2C_Transmit+0x92>
    1448:	80078513          	addi	a0,a5,-2048
    144c:	0405                	addi	s0,s0,1
    144e:	05c2                	slli	a1,a1,0x10
    1450:	81c1                	srli	a1,a1,0x10
    1452:	a81ff0ef          	jal	ra,ed2 <USART_SendData>
    1456:	4602                	lw	a2,0(sp)
    1458:	b7d1                	j	141c <_write+0xa>
    145a:	8532                	mv	a0,a2
    145c:	0111                	addi	sp,sp,4
    145e:	c4dfe06f          	j	aa <__riscv_restore_0>

00001462 <printchar>:
    1462:	1141                	addi	sp,sp,-16
    1464:	c606                	sw	ra,12(sp)
    1466:	c02e                	sw	a1,0(sp)
    1468:	cd0d                	beqz	a0,14a2 <printchar+0x40>
    146a:	4118                	lw	a4,0(a0)
    146c:	87aa                	mv	a5,a0
    146e:	c305                	beqz	a4,148e <printchar+0x2c>
    1470:	4158                	lw	a4,4(a0)
    1472:	557d                	li	a0,-1
    1474:	cb11                	beqz	a4,1488 <printchar+0x26>
    1476:	4685                	li	a3,1
    1478:	00d71b63          	bne	a4,a3,148e <printchar+0x2c>
    147c:	4798                	lw	a4,8(a5)
    147e:	00070023          	sb	zero,0(a4)
    1482:	0007a223          	sw	zero,4(a5)
    1486:	4505                	li	a0,1
    1488:	40b2                	lw	ra,12(sp)
    148a:	0141                	addi	sp,sp,16
    148c:	8082                	ret
    148e:	4798                	lw	a4,8(a5)
    1490:	4682                	lw	a3,0(sp)
    1492:	a314                	sb	a3,0(a4)
    1494:	4798                	lw	a4,8(a5)
    1496:	0705                	addi	a4,a4,1
    1498:	c798                	sw	a4,8(a5)
    149a:	43d8                	lw	a4,4(a5)
    149c:	177d                	addi	a4,a4,-1
    149e:	c3d8                	sw	a4,4(a5)
    14a0:	b7dd                	j	1486 <printchar+0x24>
    14a2:	4605                	li	a2,1
    14a4:	858a                	mv	a1,sp
    14a6:	37b5                	jal	1412 <_write>
    14a8:	bff9                	j	1486 <printchar+0x24>

000014aa <prints>:
    14aa:	1101                	addi	sp,sp,-32
    14ac:	cc22                	sw	s0,24(sp)
    14ae:	c22e                	sw	a1,4(sp)
    14b0:	ce06                	sw	ra,28(sp)
    14b2:	ca26                	sw	s1,20(sp)
    14b4:	842a                	mv	s0,a0
    14b6:	4781                	li	a5,0
    14b8:	02000593          	li	a1,32
    14bc:	02064563          	bltz	a2,14e6 <prints+0x3c>
    14c0:	4592                	lw	a1,4(sp)
    14c2:	95be                	add	a1,a1,a5
    14c4:	00058583          	lb	a1,0(a1)
    14c8:	e58d                	bnez	a1,14f2 <prints+0x48>
    14ca:	02c7d863          	bge	a5,a2,14fa <prints+0x50>
    14ce:	02e7d463          	bge	a5,a4,14f6 <prints+0x4c>
    14d2:	8e19                	sub	a2,a2,a4
    14d4:	02000513          	li	a0,32
    14d8:	0026f593          	andi	a1,a3,2
    14dc:	c02a                	sw	a0,0(sp)
    14de:	c589                	beqz	a1,14e8 <prints+0x3e>
    14e0:	e701                	bnez	a4,14e8 <prints+0x3e>
    14e2:	03000593          	li	a1,48
    14e6:	c02e                	sw	a1,0(sp)
    14e8:	8a85                	andi	a3,a3,1
    14ea:	4481                	li	s1,0
    14ec:	ea95                	bnez	a3,1520 <prints+0x76>
    14ee:	84b2                	mv	s1,a2
    14f0:	a00d                	j	1512 <prints+0x68>
    14f2:	0785                	addi	a5,a5,1
    14f4:	b7f1                	j	14c0 <prints+0x16>
    14f6:	8e1d                	sub	a2,a2,a5
    14f8:	bff1                	j	14d4 <prints+0x2a>
    14fa:	4601                	li	a2,0
    14fc:	bfe1                	j	14d4 <prints+0x2a>
    14fe:	4582                	lw	a1,0(sp)
    1500:	8522                	mv	a0,s0
    1502:	c83a                	sw	a4,16(sp)
    1504:	c632                	sw	a2,12(sp)
    1506:	c43e                	sw	a5,8(sp)
    1508:	3fa9                	jal	1462 <printchar>
    150a:	47a2                	lw	a5,8(sp)
    150c:	4632                	lw	a2,12(sp)
    150e:	4742                	lw	a4,16(sp)
    1510:	14fd                	addi	s1,s1,-1
    1512:	fe9046e3          	bgtz	s1,14fe <prints+0x54>
    1516:	84b2                	mv	s1,a2
    1518:	00065363          	bgez	a2,151e <prints+0x74>
    151c:	4481                	li	s1,0
    151e:	8e05                	sub	a2,a2,s1
    1520:	02e7c763          	blt	a5,a4,154e <prints+0xa4>
    1524:	87a6                	mv	a5,s1
    1526:	4692                	lw	a3,4(sp)
    1528:	40978733          	sub	a4,a5,s1
    152c:	9736                	add	a4,a4,a3
    152e:	00070583          	lb	a1,0(a4)
    1532:	ed95                	bnez	a1,156e <prints+0xc4>
    1534:	84b2                	mv	s1,a2
    1536:	04904463          	bgtz	s1,157e <prints+0xd4>
    153a:	00065363          	bgez	a2,1540 <prints+0x96>
    153e:	4601                	li	a2,0
    1540:	40f2                	lw	ra,28(sp)
    1542:	4462                	lw	s0,24(sp)
    1544:	44d2                	lw	s1,20(sp)
    1546:	00f60533          	add	a0,a2,a5
    154a:	6105                	addi	sp,sp,32
    154c:	8082                	ret
    154e:	8f1d                	sub	a4,a4,a5
    1550:	87ba                	mv	a5,a4
    1552:	03000593          	li	a1,48
    1556:	8522                	mv	a0,s0
    1558:	c832                	sw	a2,16(sp)
    155a:	c63e                	sw	a5,12(sp)
    155c:	c43a                	sw	a4,8(sp)
    155e:	3711                	jal	1462 <printchar>
    1560:	47b2                	lw	a5,12(sp)
    1562:	4722                	lw	a4,8(sp)
    1564:	4642                	lw	a2,16(sp)
    1566:	17fd                	addi	a5,a5,-1
    1568:	f7ed                	bnez	a5,1552 <prints+0xa8>
    156a:	94ba                	add	s1,s1,a4
    156c:	bf65                	j	1524 <prints+0x7a>
    156e:	8522                	mv	a0,s0
    1570:	c632                	sw	a2,12(sp)
    1572:	c43e                	sw	a5,8(sp)
    1574:	35fd                	jal	1462 <printchar>
    1576:	47a2                	lw	a5,8(sp)
    1578:	4632                	lw	a2,12(sp)
    157a:	0785                	addi	a5,a5,1
    157c:	b76d                	j	1526 <prints+0x7c>
    157e:	4582                	lw	a1,0(sp)
    1580:	8522                	mv	a0,s0
    1582:	c432                	sw	a2,8(sp)
    1584:	c23e                	sw	a5,4(sp)
    1586:	3df1                	jal	1462 <printchar>
    1588:	14fd                	addi	s1,s1,-1
    158a:	4622                	lw	a2,8(sp)
    158c:	4792                	lw	a5,4(sp)
    158e:	b765                	j	1536 <prints+0x8c>

00001590 <printInt>:
    1590:	7139                	addi	sp,sp,-64
    1592:	de06                	sw	ra,60(sp)
    1594:	dc22                	sw	s0,56(sp)
    1596:	da26                	sw	s1,52(sp)
    1598:	c23e                	sw	a5,4(sp)
    159a:	8332                	mv	t1,a2
    159c:	863a                	mv	a2,a4
    159e:	ed89                	bnez	a1,15b8 <printInt+0x28>
    15a0:	4692                	lw	a3,4(sp)
    15a2:	03000793          	li	a5,48
    15a6:	4701                	li	a4,0
    15a8:	086c                	addi	a1,sp,28
    15aa:	86fc                	sh	a5,28(sp)
    15ac:	3dfd                	jal	14aa <prints>
    15ae:	50f2                	lw	ra,60(sp)
    15b0:	5462                	lw	s0,56(sp)
    15b2:	54d2                	lw	s1,52(sp)
    15b4:	6121                	addi	sp,sp,64
    15b6:	8082                	ret
    15b8:	84aa                	mv	s1,a0
    15ba:	8436                	mv	s0,a3
    15bc:	87ae                	mv	a5,a1
    15be:	ca91                	beqz	a3,15d2 <printInt+0x42>
    15c0:	4729                	li	a4,10
    15c2:	4401                	li	s0,0
    15c4:	00e31763          	bne	t1,a4,15d2 <printInt+0x42>
    15c8:	0005d563          	bgez	a1,15d2 <printInt+0x42>
    15cc:	40b007b3          	neg	a5,a1
    15d0:	4405                	li	s0,1
    15d2:	4686                	lw	a3,64(sp)
    15d4:	020109a3          	sb	zero,51(sp)
    15d8:	03310713          	addi	a4,sp,51
    15dc:	fc668693          	addi	a3,a3,-58 # 40020fc6 <__global_pointer$+0x2002077e>
    15e0:	c436                	sw	a3,8(sp)
    15e2:	859a                	mv	a1,t1
    15e4:	853e                	mv	a0,a5
    15e6:	ca32                	sw	a2,20(sp)
    15e8:	c83a                	sw	a4,16(sp)
    15ea:	c61a                	sw	t1,12(sp)
    15ec:	c03e                	sw	a5,0(sp)
    15ee:	b13fe0ef          	jal	ra,100 <__umodsi3>
    15f2:	46a5                	li	a3,9
    15f4:	4782                	lw	a5,0(sp)
    15f6:	4332                	lw	t1,12(sp)
    15f8:	4742                	lw	a4,16(sp)
    15fa:	4652                	lw	a2,20(sp)
    15fc:	00a6d463          	bge	a3,a0,1604 <printInt+0x74>
    1600:	46a2                	lw	a3,8(sp)
    1602:	9536                	add	a0,a0,a3
    1604:	03050513          	addi	a0,a0,48
    1608:	fff70693          	addi	a3,a4,-1
    160c:	fea70fa3          	sb	a0,-1(a4)
    1610:	859a                	mv	a1,t1
    1612:	853e                	mv	a0,a5
    1614:	cc32                	sw	a2,24(sp)
    1616:	ca3a                	sw	a4,20(sp)
    1618:	c81a                	sw	t1,16(sp)
    161a:	c63e                	sw	a5,12(sp)
    161c:	c036                	sw	a3,0(sp)
    161e:	ab7fe0ef          	jal	ra,d4 <__udivsi3>
    1622:	47b2                	lw	a5,12(sp)
    1624:	4342                	lw	t1,16(sp)
    1626:	4752                	lw	a4,20(sp)
    1628:	4662                	lw	a2,24(sp)
    162a:	0467f963          	bgeu	a5,t1,167c <printInt+0xec>
    162e:	cc01                	beqz	s0,1646 <printInt+0xb6>
    1630:	ca29                	beqz	a2,1682 <printInt+0xf2>
    1632:	4792                	lw	a5,4(sp)
    1634:	8b89                	andi	a5,a5,2
    1636:	c7b1                	beqz	a5,1682 <printInt+0xf2>
    1638:	02d00593          	li	a1,45
    163c:	8526                	mv	a0,s1
    163e:	c432                	sw	a2,8(sp)
    1640:	350d                	jal	1462 <printchar>
    1642:	4622                	lw	a2,8(sp)
    1644:	167d                	addi	a2,a2,-1
    1646:	4792                	lw	a5,4(sp)
    1648:	8b91                	andi	a5,a5,4
    164a:	c395                	beqz	a5,166e <printInt+0xde>
    164c:	4706                	lw	a4,64(sp)
    164e:	06100793          	li	a5,97
    1652:	c432                	sw	a2,8(sp)
    1654:	03000593          	li	a1,48
    1658:	8526                	mv	a0,s1
    165a:	02f71e63          	bne	a4,a5,1696 <printInt+0x106>
    165e:	3511                	jal	1462 <printchar>
    1660:	07800593          	li	a1,120
    1664:	8526                	mv	a0,s1
    1666:	3bf5                	jal	1462 <printchar>
    1668:	4622                	lw	a2,8(sp)
    166a:	0409                	addi	s0,s0,2
    166c:	1679                	addi	a2,a2,-2
    166e:	4716                	lw	a4,68(sp)
    1670:	4692                	lw	a3,4(sp)
    1672:	4582                	lw	a1,0(sp)
    1674:	8526                	mv	a0,s1
    1676:	3d15                	jal	14aa <prints>
    1678:	9522                	add	a0,a0,s0
    167a:	bf15                	j	15ae <printInt+0x1e>
    167c:	87aa                	mv	a5,a0
    167e:	4702                	lw	a4,0(sp)
    1680:	b78d                	j	15e2 <printInt+0x52>
    1682:	4682                	lw	a3,0(sp)
    1684:	02d00793          	li	a5,45
    1688:	4401                	li	s0,0
    168a:	fef68fa3          	sb	a5,-1(a3)
    168e:	ffe70793          	addi	a5,a4,-2
    1692:	c03e                	sw	a5,0(sp)
    1694:	bf4d                	j	1646 <printInt+0xb6>
    1696:	33f1                	jal	1462 <printchar>
    1698:	05800593          	li	a1,88
    169c:	b7e1                	j	1664 <printInt+0xd4>

0000169e <printLongLongInt>:
    169e:	4501                	li	a0,0
    16a0:	8082                	ret

000016a2 <printDouble>:
    16a2:	4501                	li	a0,0
    16a4:	8082                	ret

000016a6 <print>:
    16a6:	fd810113          	addi	sp,sp,-40
    16aa:	d022                	sw	s0,32(sp)
    16ac:	ce26                	sw	s1,28(sp)
    16ae:	d206                	sw	ra,36(sp)
    16b0:	c42a                	sw	a0,8(sp)
    16b2:	82ae                	mv	t0,a1
    16b4:	8432                	mv	s0,a2
    16b6:	c602                	sw	zero,12(sp)
    16b8:	4481                	li	s1,0
    16ba:	00028583          	lb	a1,0(t0)
    16be:	ed89                	bnez	a1,16d8 <print+0x32>
    16c0:	47a2                	lw	a5,8(sp)
    16c2:	c781                	beqz	a5,16ca <print+0x24>
    16c4:	4581                	li	a1,0
    16c6:	853e                	mv	a0,a5
    16c8:	3b69                	jal	1462 <printchar>
    16ca:	5092                	lw	ra,36(sp)
    16cc:	5402                	lw	s0,32(sp)
    16ce:	8526                	mv	a0,s1
    16d0:	44f2                	lw	s1,28(sp)
    16d2:	02810113          	addi	sp,sp,40
    16d6:	8082                	ret
    16d8:	02500793          	li	a5,37
    16dc:	00f58963          	beq	a1,a5,16ee <print+0x48>
    16e0:	4522                	lw	a0,8(sp)
    16e2:	c816                	sw	t0,16(sp)
    16e4:	0485                	addi	s1,s1,1
    16e6:	d7dff0ef          	jal	ra,1462 <printchar>
    16ea:	42c2                	lw	t0,16(sp)
    16ec:	a005                	j	170c <print+0x66>
    16ee:	00128783          	lb	a5,1(t0)
    16f2:	00128713          	addi	a4,t0,1
    16f6:	00b79d63          	bne	a5,a1,1710 <print+0x6a>
    16fa:	4522                	lw	a0,8(sp)
    16fc:	02500593          	li	a1,37
    1700:	c83a                	sw	a4,16(sp)
    1702:	d61ff0ef          	jal	ra,1462 <printchar>
    1706:	4742                	lw	a4,16(sp)
    1708:	0485                	addi	s1,s1,1
    170a:	82ba                	mv	t0,a4
    170c:	0285                	addi	t0,t0,1
    170e:	b775                	j	16ba <print+0x14>
    1710:	dbc5                	beqz	a5,16c0 <print+0x1a>
    1712:	02b00693          	li	a3,43
    1716:	04d78963          	beq	a5,a3,1768 <print+0xc2>
    171a:	00f6c863          	blt	a3,a5,172a <print+0x84>
    171e:	02300693          	li	a3,35
    1722:	04d78663          	beq	a5,a3,176e <print+0xc8>
    1726:	4781                	li	a5,0
    1728:	a005                	j	1748 <print+0xa2>
    172a:	02d00693          	li	a3,45
    172e:	00d78a63          	beq	a5,a3,1742 <print+0x9c>
    1732:	03000693          	li	a3,48
    1736:	fed798e3          	bne	a5,a3,1726 <print+0x80>
    173a:	00228713          	addi	a4,t0,2
    173e:	4789                	li	a5,2
    1740:	a021                	j	1748 <print+0xa2>
    1742:	00228713          	addi	a4,t0,2
    1746:	4785                	li	a5,1
    1748:	00070683          	lb	a3,0(a4)
    174c:	02b00613          	li	a2,43
    1750:	04c68363          	beq	a3,a2,1796 <print+0xf0>
    1754:	02d64163          	blt	a2,a3,1776 <print+0xd0>
    1758:	02300613          	li	a2,35
    175c:	02c68b63          	beq	a3,a2,1792 <print+0xec>
    1760:	82ba                	mv	t0,a4
    1762:	4501                	li	a0,0
    1764:	46a5                	li	a3,9
    1766:	a081                	j	17a6 <print+0x100>
    1768:	00228713          	addi	a4,t0,2
    176c:	bf6d                	j	1726 <print+0x80>
    176e:	00228713          	addi	a4,t0,2
    1772:	4791                	li	a5,4
    1774:	bfd1                	j	1748 <print+0xa2>
    1776:	02d00613          	li	a2,45
    177a:	00c68963          	beq	a3,a2,178c <print+0xe6>
    177e:	03000613          	li	a2,48
    1782:	fcc69fe3          	bne	a3,a2,1760 <print+0xba>
    1786:	0027e793          	ori	a5,a5,2
    178a:	a031                	j	1796 <print+0xf0>
    178c:	0705                	addi	a4,a4,1
    178e:	4785                	li	a5,1
    1790:	bfc1                	j	1760 <print+0xba>
    1792:	0047e793          	ori	a5,a5,4
    1796:	0705                	addi	a4,a4,1
    1798:	b7e1                	j	1760 <print+0xba>
    179a:	00251613          	slli	a2,a0,0x2
    179e:	9532                	add	a0,a0,a2
    17a0:	0506                	slli	a0,a0,0x1
    17a2:	953a                	add	a0,a0,a4
    17a4:	0285                	addi	t0,t0,1
    17a6:	00028603          	lb	a2,0(t0)
    17aa:	fd060713          	addi	a4,a2,-48
    17ae:	0ff77593          	andi	a1,a4,255
    17b2:	feb6f4e3          	bgeu	a3,a1,179a <print+0xf4>
    17b6:	02e00713          	li	a4,46
    17ba:	4699                	li	a3,6
    17bc:	00e61e63          	bne	a2,a4,17d8 <print+0x132>
    17c0:	0285                	addi	t0,t0,1
    17c2:	4681                	li	a3,0
    17c4:	45a5                	li	a1,9
    17c6:	00028603          	lb	a2,0(t0)
    17ca:	fd060613          	addi	a2,a2,-48
    17ce:	0ff67713          	andi	a4,a2,255
    17d2:	02e5f563          	bgeu	a1,a4,17fc <print+0x156>
    17d6:	c636                	sw	a3,12(sp)
    17d8:	00028703          	lb	a4,0(t0)
    17dc:	06a00613          	li	a2,106
    17e0:	0ac70d63          	beq	a4,a2,189a <print+0x1f4>
    17e4:	02e64363          	blt	a2,a4,180a <print+0x164>
    17e8:	04c00613          	li	a2,76
    17ec:	0ac70763          	beq	a4,a2,189a <print+0x1f4>
    17f0:	06800613          	li	a2,104
    17f4:	08c70c63          	beq	a4,a2,188c <print+0x1e6>
    17f8:	4581                	li	a1,0
    17fa:	a82d                	j	1834 <print+0x18e>
    17fc:	00269713          	slli	a4,a3,0x2
    1800:	96ba                	add	a3,a3,a4
    1802:	0686                	slli	a3,a3,0x1
    1804:	96b2                	add	a3,a3,a2
    1806:	0285                	addi	t0,t0,1
    1808:	bf7d                	j	17c6 <print+0x120>
    180a:	07400613          	li	a2,116
    180e:	08c70663          	beq	a4,a2,189a <print+0x1f4>
    1812:	07a00613          	li	a2,122
    1816:	08c70263          	beq	a4,a2,189a <print+0x1f4>
    181a:	06c00613          	li	a2,108
    181e:	4581                	li	a1,0
    1820:	00c71a63          	bne	a4,a2,1834 <print+0x18e>
    1824:	00128603          	lb	a2,1(t0)
    1828:	458d                	li	a1,3
    182a:	00e61463          	bne	a2,a4,1832 <print+0x18c>
    182e:	0285                	addi	t0,t0,1
    1830:	4591                	li	a1,4
    1832:	0285                	addi	t0,t0,1
    1834:	00028603          	lb	a2,0(t0)
    1838:	06000393          	li	t2,96
    183c:	06100713          	li	a4,97
    1840:	00c3c463          	blt	t2,a2,1848 <print+0x1a2>
    1844:	04100713          	li	a4,65
    1848:	06700393          	li	t2,103
    184c:	06c3c463          	blt	t2,a2,18b4 <print+0x20e>
    1850:	06500393          	li	t2,101
    1854:	18765663          	bge	a2,t2,19e0 <print+0x33a>
    1858:	04700393          	li	t2,71
    185c:	04c3c163          	blt	t2,a2,189e <print+0x1f8>
    1860:	04500593          	li	a1,69
    1864:	16b65e63          	bge	a2,a1,19e0 <print+0x33a>
    1868:	04300713          	li	a4,67
    186c:	eae610e3          	bne	a2,a4,170c <print+0x66>
    1870:	4018                	lw	a4,0(s0)
    1872:	00440393          	addi	t2,s0,4
    1876:	ca16                	sw	t0,20(sp)
    1878:	00e10c23          	sb	a4,24(sp)
    187c:	c81e                	sw	t2,16(sp)
    187e:	00010ca3          	sb	zero,25(sp)
    1882:	4701                	li	a4,0
    1884:	86be                	mv	a3,a5
    1886:	862a                	mv	a2,a0
    1888:	082c                	addi	a1,sp,24
    188a:	a849                	j	191c <print+0x276>
    188c:	00128603          	lb	a2,1(t0)
    1890:	4581                	li	a1,0
    1892:	fae611e3          	bne	a2,a4,1834 <print+0x18e>
    1896:	0289                	addi	t0,t0,2
    1898:	bf71                	j	1834 <print+0x18e>
    189a:	0285                	addi	t0,t0,1
    189c:	bfb1                	j	17f8 <print+0x152>
    189e:	06300693          	li	a3,99
    18a2:	fcd607e3          	beq	a2,a3,1870 <print+0x1ca>
    18a6:	06c6cf63          	blt	a3,a2,1924 <print+0x27e>
    18aa:	05800693          	li	a3,88
    18ae:	02d60363          	beq	a2,a3,18d4 <print+0x22e>
    18b2:	bda9                	j	170c <print+0x66>
    18b4:	07300693          	li	a3,115
    18b8:	04d60463          	beq	a2,a3,1900 <print+0x25a>
    18bc:	02c6cb63          	blt	a3,a2,18f2 <print+0x24c>
    18c0:	06f00693          	li	a3,111
    18c4:	0ed60563          	beq	a2,a3,19ae <print+0x308>
    18c8:	07000693          	li	a3,112
    18cc:	0047e793          	ori	a5,a5,4
    18d0:	e2d61ee3          	bne	a2,a3,170c <print+0x66>
    18d4:	4691                	li	a3,4
    18d6:	0cd59263          	bne	a1,a3,199a <print+0x2f4>
    18da:	00840393          	addi	t2,s0,8
    18de:	400c                	lw	a1,0(s0)
    18e0:	4050                	lw	a2,4(s0)
    18e2:	ca16                	sw	t0,20(sp)
    18e4:	c23a                	sw	a4,4(sp)
    18e6:	c03e                	sw	a5,0(sp)
    18e8:	c81e                	sw	t2,16(sp)
    18ea:	87aa                	mv	a5,a0
    18ec:	4701                	li	a4,0
    18ee:	46c1                	li	a3,16
    18f0:	a881                	j	1940 <print+0x29a>
    18f2:	07500693          	li	a3,117
    18f6:	06d60b63          	beq	a2,a3,196c <print+0x2c6>
    18fa:	07800693          	li	a3,120
    18fe:	bf45                	j	18ae <print+0x208>
    1900:	4018                	lw	a4,0(s0)
    1902:	000036b7          	lui	a3,0x3
    1906:	00440393          	addi	t2,s0,4
    190a:	fe868593          	addi	a1,a3,-24 # 2fe8 <Font7x10+0x7e0>
    190e:	c311                	beqz	a4,1912 <print+0x26c>
    1910:	85ba                	mv	a1,a4
    1912:	4732                	lw	a4,12(sp)
    1914:	ca16                	sw	t0,20(sp)
    1916:	c81e                	sw	t2,16(sp)
    1918:	86be                	mv	a3,a5
    191a:	862a                	mv	a2,a0
    191c:	4522                	lw	a0,8(sp)
    191e:	b8dff0ef          	jal	ra,14aa <prints>
    1922:	a015                	j	1946 <print+0x2a0>
    1924:	4691                	li	a3,4
    1926:	02d59563          	bne	a1,a3,1950 <print+0x2aa>
    192a:	00840393          	addi	t2,s0,8
    192e:	400c                	lw	a1,0(s0)
    1930:	4050                	lw	a2,4(s0)
    1932:	ca16                	sw	t0,20(sp)
    1934:	c23a                	sw	a4,4(sp)
    1936:	c03e                	sw	a5,0(sp)
    1938:	c81e                	sw	t2,16(sp)
    193a:	87aa                	mv	a5,a0
    193c:	4705                	li	a4,1
    193e:	46a9                	li	a3,10
    1940:	4522                	lw	a0,8(sp)
    1942:	d5dff0ef          	jal	ra,169e <printLongLongInt>
    1946:	43c2                	lw	t2,16(sp)
    1948:	94aa                	add	s1,s1,a0
    194a:	841e                	mv	s0,t2
    194c:	42d2                	lw	t0,20(sp)
    194e:	bb7d                	j	170c <print+0x66>
    1950:	46b2                	lw	a3,12(sp)
    1952:	400c                	lw	a1,0(s0)
    1954:	c816                	sw	t0,16(sp)
    1956:	c236                	sw	a3,4(sp)
    1958:	c03a                	sw	a4,0(sp)
    195a:	0411                	addi	s0,s0,4
    195c:	872a                	mv	a4,a0
    195e:	4685                	li	a3,1
    1960:	4629                	li	a2,10
    1962:	4522                	lw	a0,8(sp)
    1964:	c2dff0ef          	jal	ra,1590 <printInt>
    1968:	94aa                	add	s1,s1,a0
    196a:	b341                	j	16ea <print+0x44>
    196c:	4691                	li	a3,4
    196e:	00d59d63          	bne	a1,a3,1988 <print+0x2e2>
    1972:	00840393          	addi	t2,s0,8
    1976:	400c                	lw	a1,0(s0)
    1978:	4050                	lw	a2,4(s0)
    197a:	ca16                	sw	t0,20(sp)
    197c:	c23a                	sw	a4,4(sp)
    197e:	c03e                	sw	a5,0(sp)
    1980:	c81e                	sw	t2,16(sp)
    1982:	87aa                	mv	a5,a0
    1984:	4701                	li	a4,0
    1986:	bf65                	j	193e <print+0x298>
    1988:	46b2                	lw	a3,12(sp)
    198a:	400c                	lw	a1,0(s0)
    198c:	c816                	sw	t0,16(sp)
    198e:	c236                	sw	a3,4(sp)
    1990:	c03a                	sw	a4,0(sp)
    1992:	0411                	addi	s0,s0,4
    1994:	872a                	mv	a4,a0
    1996:	4681                	li	a3,0
    1998:	b7e1                	j	1960 <print+0x2ba>
    199a:	46b2                	lw	a3,12(sp)
    199c:	c816                	sw	t0,16(sp)
    199e:	400c                	lw	a1,0(s0)
    19a0:	4641                	li	a2,16
    19a2:	c236                	sw	a3,4(sp)
    19a4:	c03a                	sw	a4,0(sp)
    19a6:	0411                	addi	s0,s0,4
    19a8:	872a                	mv	a4,a0
    19aa:	4681                	li	a3,0
    19ac:	bf5d                	j	1962 <print+0x2bc>
    19ae:	4691                	li	a3,4
    19b0:	00d59e63          	bne	a1,a3,19cc <print+0x326>
    19b4:	00840393          	addi	t2,s0,8
    19b8:	400c                	lw	a1,0(s0)
    19ba:	4050                	lw	a2,4(s0)
    19bc:	ca16                	sw	t0,20(sp)
    19be:	c23a                	sw	a4,4(sp)
    19c0:	c03e                	sw	a5,0(sp)
    19c2:	c81e                	sw	t2,16(sp)
    19c4:	87aa                	mv	a5,a0
    19c6:	4701                	li	a4,0
    19c8:	46a1                	li	a3,8
    19ca:	bf9d                	j	1940 <print+0x29a>
    19cc:	46b2                	lw	a3,12(sp)
    19ce:	400c                	lw	a1,0(s0)
    19d0:	c816                	sw	t0,16(sp)
    19d2:	c236                	sw	a3,4(sp)
    19d4:	c03a                	sw	a4,0(sp)
    19d6:	0411                	addi	s0,s0,4
    19d8:	872a                	mv	a4,a0
    19da:	4681                	li	a3,0
    19dc:	4621                	li	a2,8
    19de:	b751                	j	1962 <print+0x2bc>
    19e0:	400c                	lw	a1,0(s0)
    19e2:	00840613          	addi	a2,s0,8
    19e6:	4040                	lw	s0,4(s0)
    19e8:	c23a                	sw	a4,4(sp)
    19ea:	872a                	mv	a4,a0
    19ec:	4522                	lw	a0,8(sp)
    19ee:	c832                	sw	a2,16(sp)
    19f0:	c03e                	sw	a5,0(sp)
    19f2:	8622                	mv	a2,s0
    19f4:	87b6                	mv	a5,a3
    19f6:	46a9                	li	a3,10
    19f8:	ca16                	sw	t0,20(sp)
    19fa:	ca9ff0ef          	jal	ra,16a2 <printDouble>
    19fe:	94aa                	add	s1,s1,a0
    1a00:	4442                	lw	s0,16(sp)
    1a02:	b7a9                	j	194c <print+0x2a6>

00001a04 <printf>:
    1a04:	fdc10113          	addi	sp,sp,-36
    1a08:	c82e                	sw	a1,16(sp)
    1a0a:	ca32                	sw	a2,20(sp)
    1a0c:	85aa                	mv	a1,a0
    1a0e:	0810                	addi	a2,sp,16
    1a10:	4501                	li	a0,0
    1a12:	c606                	sw	ra,12(sp)
    1a14:	cc36                	sw	a3,24(sp)
    1a16:	ce3a                	sw	a4,28(sp)
    1a18:	d03e                	sw	a5,32(sp)
    1a1a:	c032                	sw	a2,0(sp)
    1a1c:	c8bff0ef          	jal	ra,16a6 <print>
    1a20:	40b2                	lw	ra,12(sp)
    1a22:	02410113          	addi	sp,sp,36
    1a26:	8082                	ret

00001a28 <sprintf>:
    1a28:	fd410113          	addi	sp,sp,-44
    1a2c:	ce32                	sw	a2,28(sp)
    1a2e:	d43e                	sw	a5,40(sp)
    1a30:	c62a                	sw	a0,12(sp)
    1a32:	0870                	addi	a2,sp,28
    1a34:	57fd                	li	a5,-1
    1a36:	0048                	addi	a0,sp,4
    1a38:	cc06                	sw	ra,24(sp)
    1a3a:	d036                	sw	a3,32(sp)
    1a3c:	d23a                	sw	a4,36(sp)
    1a3e:	c202                	sw	zero,4(sp)
    1a40:	c43e                	sw	a5,8(sp)
    1a42:	c032                	sw	a2,0(sp)
    1a44:	c63ff0ef          	jal	ra,16a6 <print>
    1a48:	40e2                	lw	ra,24(sp)
    1a4a:	02c10113          	addi	sp,sp,44
    1a4e:	8082                	ret

00001a50 <puts>:
    1a50:	1141                	addi	sp,sp,-16
    1a52:	c422                	sw	s0,8(sp)
    1a54:	c226                	sw	s1,4(sp)
    1a56:	c606                	sw	ra,12(sp)
    1a58:	211c                	lbu	a5,0(a0)
    1a5a:	84aa                	mv	s1,a0
    1a5c:	4401                	li	s0,0
    1a5e:	81dc                	sb	a5,3(sp)
    1a60:	00310783          	lb	a5,3(sp)
    1a64:	0405                	addi	s0,s0,1
    1a66:	ef99                	bnez	a5,1a84 <puts+0x34>
    1a68:	47a9                	li	a5,10
    1a6a:	00310593          	addi	a1,sp,3
    1a6e:	4605                	li	a2,1
    1a70:	4501                	li	a0,0
    1a72:	81dc                	sb	a5,3(sp)
    1a74:	99fff0ef          	jal	ra,1412 <_write>
    1a78:	8522                	mv	a0,s0
    1a7a:	40b2                	lw	ra,12(sp)
    1a7c:	4422                	lw	s0,8(sp)
    1a7e:	4492                	lw	s1,4(sp)
    1a80:	0141                	addi	sp,sp,16
    1a82:	8082                	ret
    1a84:	4605                	li	a2,1
    1a86:	00310593          	addi	a1,sp,3
    1a8a:	4501                	li	a0,0
    1a8c:	987ff0ef          	jal	ra,1412 <_write>
    1a90:	008487b3          	add	a5,s1,s0
    1a94:	239c                	lbu	a5,0(a5)
    1a96:	81dc                	sb	a5,3(sp)
    1a98:	b7e1                	j	1a60 <puts+0x10>

00001a9a <strcpy>:
    1a9a:	87aa                	mv	a5,a0
    1a9c:	2198                	lbu	a4,0(a1)
    1a9e:	0785                	addi	a5,a5,1
    1aa0:	0585                	addi	a1,a1,1
    1aa2:	fee78fa3          	sb	a4,-1(a5)
    1aa6:	fb7d                	bnez	a4,1a9c <strcpy+0x2>
    1aa8:	8082                	ret
	...

00001aac <Font11x18>:
	...
    1ad0:	0000 0c00 0c00 0c00 0c00 0c00 0c00 0c00     ................
    1ae0:	0c00 0c00 0c00 0c00 0000 0c00 0c00 0000     ................
    1af0:	0000 0000 0000 1b00 1b00 1b00 1b00 1b00     ................
	...
    1b18:	0000 1980 1980 1980 1980 7fc0 7fc0 1980     ................
    1b28:	3300 7fc0 7fc0 3300 3300 3300 3300 0000     .3.....3.3.3.3..
    1b38:	0000 0000 0000 1e00 3f00 7580 6580 7400     .........?.u.e.t
    1b48:	3c00 1e00 0700 0580 6580 6580 7580 3f00     .<.......e.e.u.?
    1b58:	1e00 0400 0400 0000 0000 7000 d800 d840     ...........p..@.
    1b68:	d8c0 d980 7300 0600 0c00 1b80 36c0 66c0     .....s.......6.f
    1b78:	46c0 06c0 0380 0000 0000 0000 0000 1e00     .F..............
    1b88:	3f00 3300 3300 3300 1e00 0c00 3cc0 66c0     .?.3.3.3.....<.f
    1b98:	6380 6180 6380 3ec0 1c80 0000 0000 0000     .c.a.c.>........
    1ba8:	0000 0c00 0c00 0c00 0c00 0c00 0000 0000     ................
	...
    1bcc:	0080 0100 0300 0600 0600 0400 0c00 0c00     ................
    1bdc:	0c00 0c00 0c00 0c00 0400 0600 0600 0300     ................
    1bec:	0100 0080 2000 1000 1800 0c00 0c00 0400     ..... ..........
    1bfc:	0600 0600 0600 0600 0600 0600 0400 0c00     ................
    1c0c:	0c00 1800 1000 2000 0000 0c00 2d00 3f00     ....... .....-.?
    1c1c:	1e00 3300 0000 0000 0000 0000 0000 0000     ...3............
	...
    1c3c:	0000 0c00 0c00 0c00 0c00 ffc0 ffc0 0c00     ................
    1c4c:	0c00 0c00 0c00 0000 0000 0000 0000 0000     ................
	...
    1c74:	0000 0c00 0c00 0400 0400 0800 0000 0000     ................
	...
    1c90:	0000 1e00 1e00 0000 0000 0000 0000 0000     ................
	...
    1cbc:	0000 6000 6000 0000 0000 0000 0000 0300     ...`.`..........
    1ccc:	0300 0300 0600 0600 0600 0600 0c00 0c00     ................
    1cdc:	0c00 0c00 1800 1800 1800 0000 0000 0000     ................
    1cec:	0000 1e00 3f00 3300 6180 6180 6180 6d80     .....?.3.a.a.a.m
    1cfc:	6d80 6180 6180 6180 3300 3f00 1e00 0000     .m.a.a.a.3.?....
    1d0c:	0000 0000 0000 0600 0e00 1e00 3600 2600     .............6.&
    1d1c:	0600 0600 0600 0600 0600 0600 0600 0600     ................
    1d2c:	0600 0000 0000 0000 0000 1e00 3f00 7380     .............?.s
    1d3c:	6180 6180 0180 0300 0600 0c00 1800 3000     .a.a...........0
    1d4c:	6000 7f80 7f80 0000 0000 0000 0000 1c00     .`..............
    1d5c:	3e00 6300 6300 0300 0e00 0e00 0300 0180     .>.c.c..........
    1d6c:	0180 6180 7380 3f00 1e00 0000 0000 0000     ...a.s.?........
    1d7c:	0000 0600 0e00 0e00 1e00 1e00 1600 3600     ...............6
    1d8c:	3600 6600 7f80 7f80 0600 0600 0600 0000     .6.f............
    1d9c:	0000 0000 0000 7f00 7f00 6000 6000 6000     ...........`.`.`
    1dac:	6e00 7f00 6380 0180 0180 6180 7380 3f00     .n...c.....a.s.?
    1dbc:	1e00 0000 0000 0000 0000 1e00 3f00 3380     .............?.3
    1dcc:	6180 6000 6e00 7f00 7380 6180 6180 6180     .a.`.n...s.a.a.a
    1ddc:	3380 3f00 1e00 0000 0000 0000 0000 7f80     .3.?............
    1dec:	7f80 0180 0300 0300 0600 0600 0c00 0c00     ................
    1dfc:	0c00 0800 1800 1800 1800 0000 0000 0000     ................
    1e0c:	0000 1e00 3f00 6380 6180 6180 2100 1e00     .....?.c.a.a.!..
    1e1c:	3f00 6180 6180 6180 6180 3f00 1e00 0000     .?.a.a.a.a.?....
    1e2c:	0000 0000 0000 1e00 3f00 7300 6180 6180     .........?.s.a.a
    1e3c:	6180 7380 3f80 1d80 0180 6180 7300 3f00     .a.s.?.....a.s.?
    1e4c:	1e00 0000 0000 0000 0000 0000 0000 0000     ................
    1e5c:	0000 0c00 0c00 0000 0000 0000 0000 0000     ................
    1e6c:	0000 0c00 0c00 0000 0000 0000 0000 0000     ................
	...
    1e84:	0c00 0c00 0000 0000 0000 0000 0000 0c00     ................
    1e94:	0c00 0400 0400 0800 0000 0000 0000 0000     ................
    1ea4:	0080 0380 0e00 3800 6000 3800 0e00 0380     .......8.`.8....
    1eb4:	0080 0000 0000 0000 0000 0000 0000 0000     ................
    1ec4:	0000 0000 0000 7f80 7f80 0000 0000 7f80     ................
    1ed4:	7f80 0000 0000 0000 0000 0000 0000 0000     ................
	...
    1eec:	4000 7000 1c00 0700 0180 0700 1c00 7000     .@.p...........p
    1efc:	4000 0000 0000 0000 0000 0000 0000 1f00     .@..............
    1f0c:	3f80 71c0 60c0 00c0 01c0 0380 0700 0e00     .?.q.`..........
    1f1c:	0c00 0c00 0000 0c00 0c00 0000 0000 0000     ................
    1f2c:	0000 1e00 3f00 3180 7180 6380 6f80 6d80     .....?.1.q.c.o.m
    1f3c:	6d80 6f80 6780 6000 3200 3e00 1c00 0000     .m.o.g.`.2.>....
    1f4c:	0000 0000 0000 0e00 0e00 1b00 1b00 1b00     ................
    1f5c:	1b00 3180 3180 3f80 3f80 3180 60c0 60c0     ...1.1.?.?.1.`.`
    1f6c:	60c0 0000 0000 0000 0000 7c00 7e00 6300     .`.........|.~.c
    1f7c:	6300 6300 6300 7e00 7e00 6300 6180 6180     .c.c.c.~.~.c.a.a
    1f8c:	6380 7f00 7e00 0000 0000 0000 0000 1e00     .c...~..........
    1f9c:	3f00 3180 6180 6000 6000 6000 6000 6000     .?.1.a.`.`.`.`.`
    1fac:	6000 6180 3180 3f00 1e00 0000 0000 0000     .`.a.1.?........
    1fbc:	0000 7c00 7f00 6300 6380 6180 6180 6180     ...|...c.c.a.a.a
    1fcc:	6180 6180 6180 6300 6300 7e00 7c00 0000     .a.a.a.c.c.~.|..
    1fdc:	0000 0000 0000 7f80 7f80 6000 6000 6000     ...........`.`.`
    1fec:	6000 7f00 7f00 6000 6000 6000 6000 7f80     .`.....`.`.`.`..
    1ffc:	7f80 0000 0000 0000 0000 7f80 7f80 6000     ...............`
    200c:	6000 6000 6000 7f00 7f00 6000 6000 6000     .`.`.`.....`.`.`
    201c:	6000 6000 6000 0000 0000 0000 0000 1e00     .`.`.`..........
    202c:	3f00 3180 6180 6000 6000 6000 6380 6380     .?.1.a.`.`.`.c.c
    203c:	6180 6180 3180 3f80 1e00 0000 0000 0000     .a.a.1.?........
    204c:	0000 6180 6180 6180 6180 6180 6180 7f80     ...a.a.a.a.a.a..
    205c:	7f80 6180 6180 6180 6180 6180 6180 0000     ...a.a.a.a.a.a..
    206c:	0000 0000 0000 3f00 3f00 0c00 0c00 0c00     .......?.?......
    207c:	0c00 0c00 0c00 0c00 0c00 0c00 0c00 3f00     ...............?
    208c:	3f00 0000 0000 0000 0000 0180 0180 0180     .?..............
    209c:	0180 0180 0180 0180 0180 0180 6180 6180     .............a.a
    20ac:	7380 3f00 1e00 0000 0000 0000 0000 60c0     .s.?...........`
    20bc:	6180 6300 6600 6600 6c00 7800 7c00 6600     .a.c.f.f.l.x.|.f
    20cc:	6600 6300 6180 6180 60c0 0000 0000 0000     .f.c.a.a.`......
    20dc:	0000 6000 6000 6000 6000 6000 6000 6000     ...`.`.`.`.`.`.`
    20ec:	6000 6000 6000 6000 6000 7f80 7f80 0000     .`.`.`.`.`......
    20fc:	0000 0000 0000 71c0 71c0 7bc0 7ac0 6ac0     .......q.q.{.z.j
    210c:	6ac0 6ec0 64c0 60c0 60c0 60c0 60c0 60c0     .j.n.d.`.`.`.`.`
    211c:	60c0 0000 0000 0000 0000 7180 7180 7980     .`.........q.q.y
    212c:	7980 7980 6d80 6d80 6d80 6580 6780 6780     .y.y.m.m.m.e.g.g
    213c:	6780 6380 6380 0000 0000 0000 0000 1e00     .g.c.c..........
    214c:	3f00 3300 6180 6180 6180 6180 6180 6180     .?.3.a.a.a.a.a.a
    215c:	6180 6180 3300 3f00 1e00 0000 0000 0000     .a.a.3.?........
    216c:	0000 7e00 7f00 6380 6180 6180 6180 6380     ...~...c.a.a.a.c
    217c:	7f00 7e00 6000 6000 6000 6000 6000 0000     ...~.`.`.`.`.`..
    218c:	0000 0000 0000 1e00 3f00 3300 6180 6180     .........?.3.a.a
    219c:	6180 6180 6180 6180 6580 6780 3300 3f80     .a.a.a.a.e.g.3.?
    21ac:	1e40 0000 0000 0000 0000 7e00 7f00 6380     @..........~...c
    21bc:	6180 6180 6380 7f00 7e00 6600 6300 6300     .a.a.c...~.f.c.c
    21cc:	6180 6180 60c0 0000 0000 0000 0000 0e00     .a.a.`..........
    21dc:	1f00 3180 3180 3000 3800 1e00 0700 0380     ...1.1.0.8......
    21ec:	6180 6180 3180 3f00 1e00 0000 0000 0000     .a.a.1.?........
    21fc:	0000 ffc0 ffc0 0c00 0c00 0c00 0c00 0c00     ................
    220c:	0c00 0c00 0c00 0c00 0c00 0c00 0c00 0000     ................
    221c:	0000 0000 0000 6180 6180 6180 6180 6180     .......a.a.a.a.a
    222c:	6180 6180 6180 6180 6180 6180 7380 3f00     .a.a.a.a.a.a.s.?
    223c:	1e00 0000 0000 0000 0000 60c0 60c0 60c0     ...........`.`.`
    224c:	3180 3180 3180 1b00 1b00 1b00 1b00 0e00     .1.1.1..........
    225c:	0e00 0e00 0400 0000 0000 0000 0000 c0c0     ................
    226c:	c0c0 c0c0 c0c0 c0c0 ccc0 4c80 4c80 5e80     ...........L.L.^
    227c:	5280 5280 7380 6180 6180 0000 0000 0000     .R.R.s.a.a......
    228c:	0000 c0c0 6080 6180 3300 3b00 1e00 0c00     .....`.a.3.;....
    229c:	0c00 1e00 1f00 3b00 7180 6180 c0c0 0000     .......;.q.a....
    22ac:	0000 0000 0000 c0c0 6180 6180 3300 3300     .........a.a.3.3
    22bc:	1e00 1e00 0c00 0c00 0c00 0c00 0c00 0c00     ................
    22cc:	0c00 0000 0000 0000 0000 3f80 3f80 0180     ...........?.?..
    22dc:	0300 0300 0600 0c00 0c00 1800 1800 3000     ...............0
    22ec:	6000 7f80 7f80 0000 0000 0000 0f00 0f00     .`..............
    22fc:	0c00 0c00 0c00 0c00 0c00 0c00 0c00 0c00     ................
    230c:	0c00 0c00 0c00 0c00 0c00 0c00 0f00 0f00     ................
    231c:	0000 1800 1800 1800 0c00 0c00 0c00 0c00     ................
    232c:	0600 0600 0600 0600 0300 0300 0300 0000     ................
    233c:	0000 0000 1e00 1e00 0600 0600 0600 0600     ................
    234c:	0600 0600 0600 0600 0600 0600 0600 0600     ................
    235c:	0600 0600 1e00 1e00 0000 0c00 0c00 1e00     ................
    236c:	1200 3300 3300 6180 6180 0000 0000 0000     ...3.3.a.a......
	...
    23a8:	ffe0 0000 0000 3800 1800 0c00 0000 0000     .......8........
	...
    23d8:	0000 1f00 3f80 6180 0180 1f80 3f80 6180     .....?.a.....?.a
    23e8:	6380 7f80 38c0 0000 0000 0000 0000 6000     .c...8.........`
    23f8:	6000 6000 6000 6e00 7f00 7380 6180 6180     .`.`.`.n...s.a.a
    2408:	6180 6180 7380 7f00 6e00 0000 0000 0000     .a.a.s...n......
	...
    2420:	0000 1e00 3f00 7380 6180 6000 6000 6180     .....?.s.a.`.`.a
    2430:	7380 3f00 1e00 0000 0000 0000 0000 0180     .s.?............
    2440:	0180 0180 0180 1d80 3f80 7380 6180 6180     .........?.s.a.a
    2450:	6180 6180 7380 3f80 1d80 0000 0000 0000     .a.a.s.?........
	...
    2468:	0000 1e00 3f00 7300 6180 7f80 7f80 6000     .....?.s.a.....`
    2478:	7180 3f00 1e00 0000 0000 0000 0000 07c0     .q.?............
    2488:	0fc0 0c00 0c00 7f80 7f80 0c00 0c00 0c00     ................
    2498:	0c00 0c00 0c00 0c00 0c00 0000 0000 0000     ................
	...
    24b0:	1d80 3f80 7380 6180 6180 6180 6180 7380     ...?.s.a.a.a.a.s
    24c0:	3f80 1d80 0180 6380 7f00 3e00 0000 6000     .?.....c...>...`
    24d0:	6000 6000 6000 6f00 7f80 7180 6180 6180     .`.`.`.o...q.a.a
    24e0:	6180 6180 6180 6180 6180 0000 0000 0000     .a.a.a.a.a......
    24f0:	0000 0600 0600 0000 0000 3e00 3e00 0600     ...........>.>..
    2500:	0600 0600 0600 0600 0600 0600 0600 0000     ................
    2510:	0000 0000 0600 0600 0000 0000 3e00 3e00     .............>.>
    2520:	0600 0600 0600 0600 0600 0600 0600 0600     ................
    2530:	0600 4600 7e00 3c00 0000 6000 6000 6000     ...F.~.<...`.`.`
    2540:	6000 6180 6300 6600 6c00 7c00 7600 6300     .`.a.c.f.l.|.v.c
    2550:	6300 6180 60c0 0000 0000 0000 0000 3e00     .c.a.`.........>
    2560:	3e00 0600 0600 0600 0600 0600 0600 0600     .>..............
    2570:	0600 0600 0600 0600 0600 0000 0000 0000     ................
	...
    2588:	0000 dd80 ffc0 cec0 ccc0 ccc0 ccc0 ccc0     ................
    2598:	ccc0 ccc0 ccc0 0000 0000 0000 0000 0000     ................
    25a8:	0000 0000 0000 6f00 7f80 7180 6180 6180     .......o...q.a.a
    25b8:	6180 6180 6180 6180 6180 0000 0000 0000     .a.a.a.a.a......
	...
    25d0:	0000 1e00 3f00 7380 6180 6180 6180 6180     .....?.s.a.a.a.a
    25e0:	7380 3f00 1e00 0000 0000 0000 0000 0000     .s.?............
    25f0:	0000 0000 6e00 7f00 7380 6180 6180 6180     .....n...s.a.a.a
    2600:	6180 7380 7f00 6e00 6000 6000 6000 6000     .a.s...n.`.`.`.`
	...
    2618:	1d80 3f80 7380 6180 6180 6180 6180 7380     ...?.s.a.a.a.a.s
    2628:	3f80 1d80 0180 0180 0180 0180 0000 0000     .?..............
    2638:	0000 0000 0000 6700 3f80 3900 3000 3000     .......g.?.9.0.0
    2648:	3000 3000 3000 3000 3000 0000 0000 0000     .0.0.0.0.0......
	...
    2660:	0000 1e00 3f80 6180 6000 7f00 3f80 0180     .....?.a.`...?..
    2670:	6180 7f00 1e00 0000 0000 0000 0000 0000     .a..............
    2680:	0800 1800 1800 7f00 7f00 1800 1800 1800     ................
    2690:	1800 1800 1800 1f80 0f80 0000 0000 0000     ................
	...
    26a8:	0000 6180 6180 6180 6180 6180 6180 6180     ...a.a.a.a.a.a.a
    26b8:	6380 7f80 3d80 0000 0000 0000 0000 0000     .c...=..........
    26c8:	0000 0000 0000 60c0 3180 3180 3180 1b00     .......`.1.1.1..
    26d8:	1b00 1b00 0e00 0e00 0600 0000 0000 0000     ................
	...
    26f0:	0000 dd80 dd80 dd80 5500 5500 5500 7700     .........U.U.U.w
    2700:	7700 2200 2200 0000 0000 0000 0000 0000     .w."."..........
    2710:	0000 0000 0000 6180 3300 3300 1e00 0c00     .......a.3.3....
    2720:	0c00 1e00 3300 3300 6180 0000 0000 0000     .....3.3.a......
	...
    2738:	6180 6180 3180 3300 3300 1b00 1b00 1b00     .a.a.1.3.3......
    2748:	0e00 0e00 0e00 1c00 7c00 7000 0000 0000     .........|.p....
    2758:	0000 0000 0000 7fc0 7fc0 0180 0300 0600     ................
    2768:	0c00 1800 3000 7fc0 7fc0 0000 0000 0000     .....0..........
    2778:	0380 0780 0600 0600 0600 0600 0600 0e00     ................
    2788:	1c00 1c00 0e00 0600 0600 0600 0600 0600     ................
    2798:	0780 0380 0600 0600 0600 0600 0600 0600     ................
    27a8:	0600 0600 0600 0600 0600 0600 0600 0600     ................
    27b8:	0600 0600 0600 0600 3800 3c00 0c00 0c00     .........8.<....
    27c8:	0c00 0c00 0c00 0e00 0700 0700 0e00 0c00     ................
    27d8:	0c00 0c00 0c00 0c00 3c00 3800 0000 0000     .........<.8....
	...
    27f0:	0000 3880 7f80 4700 0000 0000 0000 0000     ...8...G........
	...

00002808 <Font7x10>:
	...
    281c:	1000 1000 1000 1000 1000 1000 0000 1000     ................
    282c:	0000 0000 2800 2800 2800 0000 0000 0000     .....(.(.(......
	...
    2844:	2400 2400 7c00 2400 4800 7c00 4800 4800     .$.$.|.$.H.|.H.H
    2854:	0000 0000 3800 5400 5000 3800 1400 5400     .....8.T.P.8...T
    2864:	5400 3800 1000 0000 2000 5400 5800 3000     .T.8..... .T.X.0
    2874:	2800 5400 1400 0800 0000 0000 1000 2800     .(.T...........(
    2884:	2800 1000 3400 4800 4800 3400 0000 0000     .(...4.H.H.4....
    2894:	1000 1000 1000 0000 0000 0000 0000 0000     ................
    28a4:	0000 0000 0800 1000 2000 2000 2000 2000     ......... . . . 
    28b4:	2000 2000 1000 0800 2000 1000 0800 0800     . . ..... ......
    28c4:	0800 0800 0800 0800 1000 2000 1000 3800     ........... ...8
    28d4:	1000 2800 0000 0000 0000 0000 0000 0000     ...(............
    28e4:	0000 0000 1000 1000 7c00 1000 1000 0000     .........|......
	...
    2904:	0000 1000 1000 1000 0000 0000 0000 0000     ................
    2914:	0000 3800 0000 0000 0000 0000 0000 0000     ...8............
	...
    292c:	0000 4000 0000 0000 0800 0800 1000 1000     ...@............
    293c:	1000 1000 2000 2000 0000 0000 3800 4400     ..... . .....8.D
    294c:	4400 5400 4400 4400 4400 3800 0000 0000     .D.T.D.D.D.8....
    295c:	1000 3000 5000 1000 1000 1000 1000 1000     ...0.P..........
    296c:	0000 0000 3800 4400 4400 0400 0800 1000     .....8.D.D......
    297c:	2000 7c00 0000 0000 3800 4400 0400 1800     . .|.....8.D....
    298c:	0400 0400 4400 3800 0000 0000 0800 1800     .....D.8........
    299c:	2800 2800 4800 7c00 0800 0800 0000 0000     .(.(.H.|........
    29ac:	7c00 4000 4000 7800 0400 0400 4400 3800     .|.@.@.x.....D.8
    29bc:	0000 0000 3800 4400 4000 7800 4400 4400     .....8.D.@.x.D.D
    29cc:	4400 3800 0000 0000 7c00 0400 0800 1000     .D.8.....|......
    29dc:	1000 2000 2000 2000 0000 0000 3800 4400     ... . . .....8.D
    29ec:	4400 3800 4400 4400 4400 3800 0000 0000     .D.8.D.D.D.8....
    29fc:	3800 4400 4400 4400 3c00 0400 4400 3800     .8.D.D.D.<...D.8
	...
    2a14:	1000 0000 0000 0000 0000 1000 0000 0000     ................
    2a24:	0000 0000 0000 1000 0000 0000 0000 1000     ................
    2a34:	1000 1000 0000 0000 0c00 3000 4000 3000     ...........0.@.0
    2a44:	0c00 0000 0000 0000 0000 0000 0000 7c00     ...............|
    2a54:	0000 7c00 0000 0000 0000 0000 0000 0000     ...|............
    2a64:	6000 1800 0400 1800 6000 0000 0000 0000     .`.......`......
    2a74:	3800 4400 0400 0800 1000 1000 0000 1000     .8.D............
    2a84:	0000 0000 3800 4400 4c00 5400 5c00 4000     .....8.D.L.T.\.@
    2a94:	4000 3800 0000 0000 1000 2800 2800 2800     .@.8.......(.(.(
    2aa4:	2800 7c00 4400 4400 0000 0000 7800 4400     .(.|.D.D.....x.D
    2ab4:	4400 7800 4400 4400 4400 7800 0000 0000     .D.x.D.D.D.x....
    2ac4:	3800 4400 4000 4000 4000 4000 4400 3800     .8.D.@.@.@.@.D.8
    2ad4:	0000 0000 7000 4800 4400 4400 4400 4400     .....p.H.D.D.D.D
    2ae4:	4800 7000 0000 0000 7c00 4000 4000 7c00     .H.p.....|.@.@.|
    2af4:	4000 4000 4000 7c00 0000 0000 7c00 4000     .@.@.@.|.....|.@
    2b04:	4000 7800 4000 4000 4000 4000 0000 0000     .@.x.@.@.@.@....
    2b14:	3800 4400 4000 4000 5c00 4400 4400 3800     .8.D.@.@.\.D.D.8
    2b24:	0000 0000 4400 4400 4400 7c00 4400 4400     .....D.D.D.|.D.D
    2b34:	4400 4400 0000 0000 3800 1000 1000 1000     .D.D.....8......
    2b44:	1000 1000 1000 3800 0000 0000 0400 0400     .......8........
    2b54:	0400 0400 0400 0400 4400 3800 0000 0000     .........D.8....
    2b64:	4400 4800 5000 6000 5000 4800 4800 4400     .D.H.P.`.P.H.H.D
    2b74:	0000 0000 4000 4000 4000 4000 4000 4000     .....@.@.@.@.@.@
    2b84:	4000 7c00 0000 0000 4400 6c00 6c00 5400     .@.|.....D.l.l.T
    2b94:	4400 4400 4400 4400 0000 0000 4400 6400     .D.D.D.D.....D.d
    2ba4:	6400 5400 5400 4c00 4c00 4400 0000 0000     .d.T.T.L.L.D....
    2bb4:	3800 4400 4400 4400 4400 4400 4400 3800     .8.D.D.D.D.D.D.8
    2bc4:	0000 0000 7800 4400 4400 4400 7800 4000     .....x.D.D.D.x.@
    2bd4:	4000 4000 0000 0000 3800 4400 4400 4400     .@.@.....8.D.D.D
    2be4:	4400 4400 5400 3800 0400 0000 7800 4400     .D.D.T.8.....x.D
    2bf4:	4400 4400 7800 4800 4800 4400 0000 0000     .D.D.x.H.H.D....
    2c04:	3800 4400 4000 3000 0800 0400 4400 3800     .8.D.@.0.....D.8
    2c14:	0000 0000 7c00 1000 1000 1000 1000 1000     .....|..........
    2c24:	1000 1000 0000 0000 4400 4400 4400 4400     .........D.D.D.D
    2c34:	4400 4400 4400 3800 0000 0000 4400 4400     .D.D.D.8.....D.D
    2c44:	4400 2800 2800 2800 1000 1000 0000 0000     .D.(.(.(........
    2c54:	4400 4400 5400 5400 5400 6c00 2800 2800     .D.D.T.T.T.l.(.(
    2c64:	0000 0000 4400 2800 2800 1000 1000 2800     .....D.(.(.....(
    2c74:	2800 4400 0000 0000 4400 4400 2800 2800     .(.D.....D.D.(.(
    2c84:	1000 1000 1000 1000 0000 0000 7c00 0400     .............|..
    2c94:	0800 1000 1000 2000 4000 7c00 0000 0000     ....... .@.|....
    2ca4:	1800 1000 1000 1000 1000 1000 1000 1000     ................
    2cb4:	1000 1800 2000 2000 1000 1000 1000 1000     ..... . ........
    2cc4:	0800 0800 0000 0000 3000 1000 1000 1000     .........0......
    2cd4:	1000 1000 1000 1000 1000 3000 1000 2800     ...........0...(
    2ce4:	2800 4400 0000 0000 0000 0000 0000 0000     .(.D............
	...
    2d04:	0000 fe00 2000 1000 0000 0000 0000 0000     ..... ..........
	...
    2d20:	3800 4400 3c00 4400 4c00 3400 0000 0000     .8.D.<.D.L.4....
    2d30:	4000 4000 5800 6400 4400 4400 6400 5800     .@.@.X.d.D.D.d.X
	...
    2d48:	3800 4400 4000 4000 4400 3800 0000 0000     .8.D.@.@.D.8....
    2d58:	0400 0400 3400 4c00 4400 4400 4c00 3400     .....4.L.D.D.L.4
	...
    2d70:	3800 4400 7c00 4000 4400 3800 0000 0000     .8.D.|.@.D.8....
    2d80:	0c00 1000 7c00 1000 1000 1000 1000 1000     .....|..........
	...
    2d98:	3400 4c00 4400 4400 4c00 3400 0400 7800     .4.L.D.D.L.4...x
    2da8:	4000 4000 5800 6400 4400 4400 4400 4400     .@.@.X.d.D.D.D.D
    2db8:	0000 0000 1000 0000 7000 1000 1000 1000     .........p......
    2dc8:	1000 1000 0000 0000 1000 0000 7000 1000     .............p..
    2dd8:	1000 1000 1000 1000 1000 e000 4000 4000     .............@.@
    2de8:	4800 5000 6000 5000 4800 4400 0000 0000     .H.P.`.P.H.D....
    2df8:	7000 1000 1000 1000 1000 1000 1000 1000     .p..............
	...
    2e10:	7800 5400 5400 5400 5400 5400 0000 0000     .x.T.T.T.T.T....
    2e20:	0000 0000 5800 6400 4400 4400 4400 4400     .....X.d.D.D.D.D
	...
    2e38:	3800 4400 4400 4400 4400 3800 0000 0000     .8.D.D.D.D.8....
    2e48:	0000 0000 5800 6400 4400 4400 6400 5800     .....X.d.D.D.d.X
    2e58:	4000 4000 0000 0000 3400 4c00 4400 4400     .@.@.....4.L.D.D
    2e68:	4c00 3400 0400 0400 0000 0000 5800 6400     .L.4.........X.d
    2e78:	4000 4000 4000 4000 0000 0000 0000 0000     .@.@.@.@........
    2e88:	3800 4400 3000 0800 4400 3800 0000 0000     .8.D.0...D.8....
    2e98:	2000 2000 7800 2000 2000 2000 2000 1800     . . .x. . . . ..
	...
    2eb0:	4400 4400 4400 4400 4c00 3400 0000 0000     .D.D.D.D.L.4....
    2ec0:	0000 0000 4400 4400 2800 2800 2800 1000     .....D.D.(.(.(..
	...
    2ed8:	5400 5400 5400 6c00 2800 2800 0000 0000     .T.T.T.l.(.(....
    2ee8:	0000 0000 4400 2800 1000 1000 2800 4400     .....D.(.....(.D
	...
    2f00:	4400 4400 2800 2800 1000 1000 1000 6000     .D.D.(.(.......`
    2f10:	0000 0000 7c00 0800 1000 2000 4000 7c00     .....|..... .@.|
    2f20:	0000 0000 1800 1000 1000 1000 2000 2000     ............. . 
    2f30:	1000 1000 1000 1800 1000 1000 1000 1000     ................
    2f40:	1000 1000 1000 1000 1000 1000 3000 1000     .............0..
    2f50:	1000 1000 0800 0800 1000 1000 1000 3000     ...............0
    2f60:	0000 0000 0000 7400 4c00 0000 0000 0000     .......t.L......
    2f70:	0000 0000 7953 7473 6d65 6c43 3a6b 6425     ....SystemClk:%d
    2f80:	0a0d 0000 6843 7069 4449 253a 3830 0d78     ....ChipID:%08x.
    2f90:	000a 0000 5047 4f49 5420 676f 6c67 2065     ....GPIO Toggle 
    2fa0:	4554 5453 000d 0000 7544 6873 6f6e 656d     TEST....Dushnome
    2fb0:	7274 0000 4f43 3a32 6425 7070 006d 0000     tr..CO2:%dppm...
    2fc0:	4852 253a 2e64 6425 2020 3a54 6425 4327     RH:%d.%d  T:%d'C
    2fd0:	0000 0000 6974 656d 253a 2e64 6425 6420     ....time:%d.%d d
    2fe0:	632f 253a 0064 0000 6e28 6c75 296c 0000     /c:%d...(null)..
